Archive member included because of file (symbol)

c:/ti/ccsv6/tools/compiler/gcc-arm-none-eabi-4_9-2015q3/bin/../lib/gcc/arm-none-eabi/4.9.3/../../../../arm-none-eabi/lib/armv7e-m/fpu\libc.a(lib_a-exit.o)
                              c:/ti/ccsv6/tools/compiler/gcc-arm-none-eabi-4_9-2015q3/bin/../lib/gcc/arm-none-eabi/4.9.3/../../../../arm-none-eabi/lib/armv7e-m/fpu/crt0.o (exit)
c:/ti/ccsv6/tools/compiler/gcc-arm-none-eabi-4_9-2015q3/bin/../lib/gcc/arm-none-eabi/4.9.3/../../../../arm-none-eabi/lib/armv7e-m/fpu\libc.a(lib_a-impure.o)
                              c:/ti/ccsv6/tools/compiler/gcc-arm-none-eabi-4_9-2015q3/bin/../lib/gcc/arm-none-eabi/4.9.3/../../../../arm-none-eabi/lib/armv7e-m/fpu\libc.a(lib_a-exit.o) (_global_impure_ptr)
c:/ti/ccsv6/tools/compiler/gcc-arm-none-eabi-4_9-2015q3/bin/../lib/gcc/arm-none-eabi/4.9.3/../../../../arm-none-eabi/lib/armv7e-m/fpu\libc.a(lib_a-init.o)
                              c:/ti/ccsv6/tools/compiler/gcc-arm-none-eabi-4_9-2015q3/bin/../lib/gcc/arm-none-eabi/4.9.3/../../../../arm-none-eabi/lib/armv7e-m/fpu/crt0.o (__libc_init_array)
c:/ti/ccsv6/tools/compiler/gcc-arm-none-eabi-4_9-2015q3/bin/../lib/gcc/arm-none-eabi/4.9.3/../../../../arm-none-eabi/lib/armv7e-m/fpu\libc.a(lib_a-memset.o)
                              c:/ti/ccsv6/tools/compiler/gcc-arm-none-eabi-4_9-2015q3/bin/../lib/gcc/arm-none-eabi/4.9.3/../../../../arm-none-eabi/lib/armv7e-m/fpu/crt0.o (memset)
c:/ti/ccsv6/tools/compiler/gcc-arm-none-eabi-4_9-2015q3/bin/../lib/gcc/arm-none-eabi/4.9.3/../../../../arm-none-eabi/lib/armv7e-m/fpu\libc.a(lib_a-__call_atexit.o)
                              c:/ti/ccsv6/tools/compiler/gcc-arm-none-eabi-4_9-2015q3/bin/../lib/gcc/arm-none-eabi/4.9.3/../../../../arm-none-eabi/lib/armv7e-m/fpu\libc.a(lib_a-exit.o) (__call_exitprocs)
c:/ti/ccsv6/tools/compiler/gcc-arm-none-eabi-4_9-2015q3/bin/../lib/gcc/arm-none-eabi/4.9.3/../../../../arm-none-eabi/lib/armv7e-m/fpu\libc.a(lib_a-atexit.o)
                              c:/ti/ccsv6/tools/compiler/gcc-arm-none-eabi-4_9-2015q3/bin/../lib/gcc/arm-none-eabi/4.9.3/../../../../arm-none-eabi/lib/armv7e-m/fpu\libc.a(lib_a-__call_atexit.o) (atexit)
c:/ti/ccsv6/tools/compiler/gcc-arm-none-eabi-4_9-2015q3/bin/../lib/gcc/arm-none-eabi/4.9.3/../../../../arm-none-eabi/lib/armv7e-m/fpu\libc.a(lib_a-fini.o)
                              c:/ti/ccsv6/tools/compiler/gcc-arm-none-eabi-4_9-2015q3/bin/../lib/gcc/arm-none-eabi/4.9.3/../../../../arm-none-eabi/lib/armv7e-m/fpu\libc.a(lib_a-__call_atexit.o) (__libc_fini_array)
c:/ti/ccsv6/tools/compiler/gcc-arm-none-eabi-4_9-2015q3/bin/../lib/gcc/arm-none-eabi/4.9.3/../../../../arm-none-eabi/lib/armv7e-m/fpu\libc.a(lib_a-__atexit.o)
                              c:/ti/ccsv6/tools/compiler/gcc-arm-none-eabi-4_9-2015q3/bin/../lib/gcc/arm-none-eabi/4.9.3/../../../../arm-none-eabi/lib/armv7e-m/fpu\libc.a(lib_a-atexit.o) (__register_exitproc)
c:/ti/ccsv6/tools/compiler/gcc-arm-none-eabi-4_9-2015q3/bin/../lib/gcc/arm-none-eabi/4.9.3/../../../../arm-none-eabi/lib/armv7e-m/fpu\libnosys.a(_exit.o)
                              c:/ti/ccsv6/tools/compiler/gcc-arm-none-eabi-4_9-2015q3/bin/../lib/gcc/arm-none-eabi/4.9.3/../../../../arm-none-eabi/lib/armv7e-m/fpu\libc.a(lib_a-exit.o) (_exit)

Memory Configuration

Name             Origin             Length             Attributes
FLASH            0x00000000         0x00040000         xr
SRAM             0x20000000         0x00008000         xw
*default*        0x00000000         0xffffffff

Linker script and memory map

LOAD c:/ti/ccsv6/tools/compiler/gcc-arm-none-eabi-4_9-2015q3/bin/../lib/gcc/arm-none-eabi/4.9.3/armv7e-m/fpu/crti.o
LOAD c:/ti/ccsv6/tools/compiler/gcc-arm-none-eabi-4_9-2015q3/bin/../lib/gcc/arm-none-eabi/4.9.3/armv7e-m/fpu/crtbegin.o
LOAD c:/ti/ccsv6/tools/compiler/gcc-arm-none-eabi-4_9-2015q3/bin/../lib/gcc/arm-none-eabi/4.9.3/../../../../arm-none-eabi/lib/armv7e-m/fpu/crt0.o
LOAD ./main.o
LOAD ./tm4c123gh6pm_startup_ccs_gcc.o
LOAD ./driverlib/adc.o
LOAD ./driverlib/aes.o
LOAD ./driverlib/can.o
LOAD ./driverlib/comp.o
LOAD ./driverlib/cpu.o
LOAD ./driverlib/crc.o
LOAD ./driverlib/des.o
LOAD ./driverlib/eeprom.o
LOAD ./driverlib/emac.o
LOAD ./driverlib/epi.o
LOAD ./driverlib/flash.o
LOAD ./driverlib/fpu.o
LOAD ./driverlib/gpio.o
LOAD ./driverlib/hibernate.o
LOAD ./driverlib/i2c.o
LOAD ./driverlib/interrupt.o
LOAD ./driverlib/lcd.o
LOAD ./driverlib/mpu.o
LOAD ./driverlib/onewire.o
LOAD ./driverlib/pwm.o
LOAD ./driverlib/qei.o
LOAD ./driverlib/shamd5.o
LOAD ./driverlib/ssi.o
LOAD ./driverlib/sw_crc.o
LOAD ./driverlib/sysctl.o
LOAD ./driverlib/sysexc.o
LOAD ./driverlib/systick.o
LOAD ./driverlib/timer.o
LOAD ./driverlib/uart.o
LOAD ./driverlib/udma.o
LOAD ./driverlib/usb.o
LOAD ./driverlib/watchdog.o
                0x00000000                PROVIDE (_intvecs_base_address, 0x0)

.intvecs        0x00000000      0x26c
 *(.intvecs)
 .intvecs       0x00000000      0x26c ./tm4c123gh6pm_startup_ccs_gcc.o
                0x00000000                g_pfnVectors
                0x20000000                PROVIDE (_vtable_base_address, 0x20000000)

.vtable
 *(.vtable)

.text           0x0000026c     0xf410
 CREATE_OBJECT_SYMBOLS
 *(.text)
 .text          0x0000026c        0x0 c:/ti/ccsv6/tools/compiler/gcc-arm-none-eabi-4_9-2015q3/bin/../lib/gcc/arm-none-eabi/4.9.3/armv7e-m/fpu/crti.o
 .text          0x0000026c       0x5c c:/ti/ccsv6/tools/compiler/gcc-arm-none-eabi-4_9-2015q3/bin/../lib/gcc/arm-none-eabi/4.9.3/armv7e-m/fpu/crtbegin.o
 .text          0x000002c8       0x74 c:/ti/ccsv6/tools/compiler/gcc-arm-none-eabi-4_9-2015q3/bin/../lib/gcc/arm-none-eabi/4.9.3/../../../../arm-none-eabi/lib/armv7e-m/fpu/crt0.o
                0x000002c8                _start
                0x000002c8                _mainCRTStartup
 .text          0x0000033c        0x0 ./main.o
 .text          0x0000033c        0x0 ./tm4c123gh6pm_startup_ccs_gcc.o
 .text          0x0000033c        0x0 ./driverlib/adc.o
 .text          0x0000033c        0x0 ./driverlib/aes.o
 .text          0x0000033c        0x0 ./driverlib/can.o
 .text          0x0000033c        0x0 ./driverlib/comp.o
 .text          0x0000033c        0x0 ./driverlib/cpu.o
 .text          0x0000033c        0x0 ./driverlib/crc.o
 .text          0x0000033c        0x0 ./driverlib/des.o
 .text          0x0000033c        0x0 ./driverlib/eeprom.o
 .text          0x0000033c        0x0 ./driverlib/emac.o
 .text          0x0000033c        0x0 ./driverlib/epi.o
 .text          0x0000033c        0x0 ./driverlib/flash.o
 .text          0x0000033c        0x0 ./driverlib/fpu.o
 .text          0x0000033c        0x0 ./driverlib/gpio.o
 .text          0x0000033c        0x0 ./driverlib/hibernate.o
 .text          0x0000033c        0x0 ./driverlib/i2c.o
 .text          0x0000033c        0x0 ./driverlib/interrupt.o
 .text          0x0000033c        0x0 ./driverlib/lcd.o
 .text          0x0000033c        0x0 ./driverlib/mpu.o
 .text          0x0000033c        0x0 ./driverlib/onewire.o
 .text          0x0000033c        0x0 ./driverlib/pwm.o
 .text          0x0000033c        0x0 ./driverlib/qei.o
 .text          0x0000033c        0x0 ./driverlib/shamd5.o
 .text          0x0000033c        0x0 ./driverlib/ssi.o
 .text          0x0000033c        0x0 ./driverlib/sw_crc.o
 .text          0x0000033c        0x0 ./driverlib/sysctl.o
 .text          0x0000033c        0x0 ./driverlib/sysexc.o
 .text          0x0000033c        0x0 ./driverlib/systick.o
 .text          0x0000033c        0x0 ./driverlib/timer.o
 .text          0x0000033c        0x0 ./driverlib/uart.o
 .text          0x0000033c        0x0 ./driverlib/udma.o
 .text          0x0000033c        0x0 ./driverlib/usb.o
 .text          0x0000033c        0x0 ./driverlib/watchdog.o
 .text          0x0000033c        0x0 c:/ti/ccsv6/tools/compiler/gcc-arm-none-eabi-4_9-2015q3/bin/../lib/gcc/arm-none-eabi/4.9.3/../../../../arm-none-eabi/lib/armv7e-m/fpu\libc.a(lib_a-exit.o)
 .text          0x0000033c        0x0 c:/ti/ccsv6/tools/compiler/gcc-arm-none-eabi-4_9-2015q3/bin/../lib/gcc/arm-none-eabi/4.9.3/../../../../arm-none-eabi/lib/armv7e-m/fpu\libc.a(lib_a-impure.o)
 .text          0x0000033c        0x0 c:/ti/ccsv6/tools/compiler/gcc-arm-none-eabi-4_9-2015q3/bin/../lib/gcc/arm-none-eabi/4.9.3/../../../../arm-none-eabi/lib/armv7e-m/fpu\libc.a(lib_a-init.o)
 .text          0x0000033c        0x0 c:/ti/ccsv6/tools/compiler/gcc-arm-none-eabi-4_9-2015q3/bin/../lib/gcc/arm-none-eabi/4.9.3/../../../../arm-none-eabi/lib/armv7e-m/fpu\libc.a(lib_a-memset.o)
 .text          0x0000033c        0x0 c:/ti/ccsv6/tools/compiler/gcc-arm-none-eabi-4_9-2015q3/bin/../lib/gcc/arm-none-eabi/4.9.3/../../../../arm-none-eabi/lib/armv7e-m/fpu\libc.a(lib_a-__call_atexit.o)
 .text          0x0000033c        0x0 c:/ti/ccsv6/tools/compiler/gcc-arm-none-eabi-4_9-2015q3/bin/../lib/gcc/arm-none-eabi/4.9.3/../../../../arm-none-eabi/lib/armv7e-m/fpu\libc.a(lib_a-atexit.o)
 .text          0x0000033c        0x0 c:/ti/ccsv6/tools/compiler/gcc-arm-none-eabi-4_9-2015q3/bin/../lib/gcc/arm-none-eabi/4.9.3/../../../../arm-none-eabi/lib/armv7e-m/fpu\libc.a(lib_a-fini.o)
 .text          0x0000033c        0x0 c:/ti/ccsv6/tools/compiler/gcc-arm-none-eabi-4_9-2015q3/bin/../lib/gcc/arm-none-eabi/4.9.3/../../../../arm-none-eabi/lib/armv7e-m/fpu\libc.a(lib_a-__atexit.o)
 .text          0x0000033c        0x0 c:/ti/ccsv6/tools/compiler/gcc-arm-none-eabi-4_9-2015q3/bin/../lib/gcc/arm-none-eabi/4.9.3/../../../../arm-none-eabi/lib/armv7e-m/fpu\libnosys.a(_exit.o)
 .text          0x0000033c        0x0 c:/ti/ccsv6/tools/compiler/gcc-arm-none-eabi-4_9-2015q3/bin/../lib/gcc/arm-none-eabi/4.9.3/armv7e-m/fpu/crtend.o
 .text          0x0000033c        0x0 c:/ti/ccsv6/tools/compiler/gcc-arm-none-eabi-4_9-2015q3/bin/../lib/gcc/arm-none-eabi/4.9.3/armv7e-m/fpu/crtn.o
 *(.text.*)
 .text.main     0x0000033c       0x74 ./main.o
                0x0000033c                main
 .text.ResetISR
                0x000003b0       0x68 ./tm4c123gh6pm_startup_ccs_gcc.o
                0x000003b0                ResetISR
 .text.NmiSR    0x00000418        0x8 ./tm4c123gh6pm_startup_ccs_gcc.o
 .text.FaultISR
                0x00000420        0x8 ./tm4c123gh6pm_startup_ccs_gcc.o
 .text.IntDefaultHandler
                0x00000428        0x8 ./tm4c123gh6pm_startup_ccs_gcc.o
 .text._ADCIntNumberGet
                0x00000430       0x78 ./driverlib/adc.o
 .text.ADCIntRegister
                0x000004a8       0x2c ./driverlib/adc.o
                0x000004a8                ADCIntRegister
 .text.ADCIntUnregister
                0x000004d4       0x28 ./driverlib/adc.o
                0x000004d4                ADCIntUnregister
 .text.ADCIntDisable
                0x000004fc       0x30 ./driverlib/adc.o
                0x000004fc                ADCIntDisable
 .text.ADCIntEnable
                0x0000052c       0x3c ./driverlib/adc.o
                0x0000052c                ADCIntEnable
 .text.ADCIntStatus
                0x00000568       0x74 ./driverlib/adc.o
                0x00000568                ADCIntStatus
 .text.ADCIntClear
                0x000005dc       0x24 ./driverlib/adc.o
                0x000005dc                ADCIntClear
 .text.ADCSequenceEnable
                0x00000600       0x28 ./driverlib/adc.o
                0x00000600                ADCSequenceEnable
 .text.ADCSequenceDisable
                0x00000628       0x28 ./driverlib/adc.o
                0x00000628                ADCSequenceDisable
 .text.ADCSequenceConfigure
                0x00000650       0x9c ./driverlib/adc.o
                0x00000650                ADCSequenceConfigure
 .text.ADCSequenceStepConfigure
                0x000006ec      0x140 ./driverlib/adc.o
                0x000006ec                ADCSequenceStepConfigure
 .text.ADCSequenceOverflow
                0x0000082c       0x28 ./driverlib/adc.o
                0x0000082c                ADCSequenceOverflow
 .text.ADCSequenceOverflowClear
                0x00000854       0x24 ./driverlib/adc.o
                0x00000854                ADCSequenceOverflowClear
 .text.ADCSequenceUnderflow
                0x00000878       0x28 ./driverlib/adc.o
                0x00000878                ADCSequenceUnderflow
 .text.ADCSequenceUnderflowClear
                0x000008a0       0x24 ./driverlib/adc.o
                0x000008a0                ADCSequenceUnderflowClear
 .text.ADCSequenceDataGet
                0x000008c4       0x54 ./driverlib/adc.o
                0x000008c4                ADCSequenceDataGet
 .text.ADCProcessorTrigger
                0x00000918       0x38 ./driverlib/adc.o
                0x00000918                ADCProcessorTrigger
 .text.ADCSoftwareOversampleConfigure
                0x00000950       0x48 ./driverlib/adc.o
                0x00000950                ADCSoftwareOversampleConfigure
 .text.ADCSoftwareOversampleStepConfigure
                0x00000998       0xfc ./driverlib/adc.o
                0x00000998                ADCSoftwareOversampleStepConfigure
 .text.ADCSoftwareOversampleDataGet
                0x00000a94       0x78 ./driverlib/adc.o
                0x00000a94                ADCSoftwareOversampleDataGet
 .text.ADCHardwareOversampleConfigure
                0x00000b0c       0x3c ./driverlib/adc.o
                0x00000b0c                ADCHardwareOversampleConfigure
 .text.ADCComparatorConfigure
                0x00000b48       0x28 ./driverlib/adc.o
                0x00000b48                ADCComparatorConfigure
 .text.ADCComparatorRegionSet
                0x00000b70       0x30 ./driverlib/adc.o
                0x00000b70                ADCComparatorRegionSet
 .text.ADCComparatorReset
                0x00000ba0       0x60 ./driverlib/adc.o
                0x00000ba0                ADCComparatorReset
 .text.ADCComparatorIntDisable
                0x00000c00       0x30 ./driverlib/adc.o
                0x00000c00                ADCComparatorIntDisable
 .text.ADCComparatorIntEnable
                0x00000c30       0x30 ./driverlib/adc.o
                0x00000c30                ADCComparatorIntEnable
 .text.ADCComparatorIntStatus
                0x00000c60       0x1c ./driverlib/adc.o
                0x00000c60                ADCComparatorIntStatus
 .text.ADCComparatorIntClear
                0x00000c7c       0x20 ./driverlib/adc.o
                0x00000c7c                ADCComparatorIntClear
 .text.ADCIntDisableEx
                0x00000c9c       0x28 ./driverlib/adc.o
                0x00000c9c                ADCIntDisableEx
 .text.ADCIntEnableEx
                0x00000cc4       0x28 ./driverlib/adc.o
                0x00000cc4                ADCIntEnableEx
 .text.ADCIntStatusEx
                0x00000cec       0x44 ./driverlib/adc.o
                0x00000cec                ADCIntStatusEx
 .text.ADCIntClearEx
                0x00000d30       0x20 ./driverlib/adc.o
                0x00000d30                ADCIntClearEx
 .text.ADCReferenceSet
                0x00000d50       0x2c ./driverlib/adc.o
                0x00000d50                ADCReferenceSet
 .text.ADCReferenceGet
                0x00000d7c       0x20 ./driverlib/adc.o
                0x00000d7c                ADCReferenceGet
 .text.ADCPhaseDelaySet
                0x00000d9c       0x20 ./driverlib/adc.o
                0x00000d9c                ADCPhaseDelaySet
 .text.ADCPhaseDelayGet
                0x00000dbc       0x1c ./driverlib/adc.o
                0x00000dbc                ADCPhaseDelayGet
 .text.ADCSequenceDMAEnable
                0x00000dd8       0x28 ./driverlib/adc.o
                0x00000dd8                ADCSequenceDMAEnable
 .text.ADCSequenceDMADisable
                0x00000e00       0x2c ./driverlib/adc.o
                0x00000e00                ADCSequenceDMADisable
 .text.ADCBusy  0x00000e2c       0x28 ./driverlib/adc.o
                0x00000e2c                ADCBusy
 .text.ADCClockConfigSet
                0x00000e54       0x40 ./driverlib/adc.o
                0x00000e54                ADCClockConfigSet
 .text.ADCClockConfigGet
                0x00000e94       0x4c ./driverlib/adc.o
                0x00000e94                ADCClockConfigGet
 .text.AESReset
                0x00000ee0       0x34 ./driverlib/aes.o
                0x00000ee0                AESReset
 .text.AESConfigSet
                0x00000f14       0x34 ./driverlib/aes.o
                0x00000f14                AESConfigSet
 .text.AESKey1Set
                0x00000f48       0x84 ./driverlib/aes.o
                0x00000f48                AESKey1Set
 .text.AESKey2Set
                0x00000fcc       0x80 ./driverlib/aes.o
                0x00000fcc                AESKey2Set
 .text.AESKey3Set
                0x0000104c       0x40 ./driverlib/aes.o
                0x0000104c                AESKey3Set
 .text.AESIVSet
                0x0000108c       0x44 ./driverlib/aes.o
                0x0000108c                AESIVSet
 .text.AESIVRead
                0x000010d0       0x54 ./driverlib/aes.o
                0x000010d0                AESIVRead
 .text.AESTagRead
                0x00001124       0x54 ./driverlib/aes.o
                0x00001124                AESTagRead
 .text.AESLengthSet
                0x00001178       0x30 ./driverlib/aes.o
                0x00001178                AESLengthSet
 .text.AESAuthLengthSet
                0x000011a8       0x20 ./driverlib/aes.o
                0x000011a8                AESAuthLengthSet
 .text.AESDataReadNonBlocking
                0x000011c8       0x58 ./driverlib/aes.o
                0x000011c8                AESDataReadNonBlocking
 .text.AESDataRead
                0x00001220       0x54 ./driverlib/aes.o
                0x00001220                AESDataRead
 .text.AESDataWriteNonBlocking
                0x00001274       0x5c ./driverlib/aes.o
                0x00001274                AESDataWriteNonBlocking
 .text.AESDataWrite
                0x000012d0       0x54 ./driverlib/aes.o
                0x000012d0                AESDataWrite
 .text.AESDataProcess
                0x00001324       0x64 ./driverlib/aes.o
                0x00001324                AESDataProcess
 .text.AESDataAuth
                0x00001388       0x54 ./driverlib/aes.o
                0x00001388                AESDataAuth
 .text.AESDataProcessAuth
                0x000013dc       0x94 ./driverlib/aes.o
                0x000013dc                AESDataProcessAuth
 .text.AESIntStatus
                0x00001470       0x8c ./driverlib/aes.o
                0x00001470                AESIntStatus
 .text.AESIntEnable
                0x000014fc       0x5c ./driverlib/aes.o
                0x000014fc                AESIntEnable
 .text.AESIntDisable
                0x00001558       0x60 ./driverlib/aes.o
                0x00001558                AESIntDisable
 .text.AESIntClear
                0x000015b8       0x3c ./driverlib/aes.o
                0x000015b8                AESIntClear
 .text.AESIntRegister
                0x000015f4       0x20 ./driverlib/aes.o
                0x000015f4                AESIntRegister
 .text.AESIntUnregister
                0x00001614       0x1c ./driverlib/aes.o
                0x00001614                AESIntUnregister
 .text.AESDMAEnable
                0x00001630       0x28 ./driverlib/aes.o
                0x00001630                AESDMAEnable
 .text.AESDMADisable
                0x00001658       0x28 ./driverlib/aes.o
                0x00001658                AESDMADisable
 .text._CANIntNumberGet
                0x00001680       0x84 ./driverlib/can.o
 .text._CANDataRegWrite
                0x00001704       0x5c ./driverlib/can.o
 .text._CANDataRegRead
                0x00001760       0x58 ./driverlib/can.o
 .text.CANInit  0x000017b8       0xb0 ./driverlib/can.o
                0x000017b8                CANInit
 .text.CANEnable
                0x00001868       0x20 ./driverlib/can.o
                0x00001868                CANEnable
 .text.CANDisable
                0x00001888       0x20 ./driverlib/can.o
                0x00001888                CANDisable
 .text.CANBitTimingGet
                0x000018a8       0x60 ./driverlib/can.o
                0x000018a8                CANBitTimingGet
 .text.CANBitRateSet
                0x00001908       0xd4 ./driverlib/can.o
                0x00001908                CANBitRateSet
 .text.CANBitTimingSet
                0x000019dc       0xa4 ./driverlib/can.o
                0x000019dc                CANBitTimingSet
 .text.CANIntRegister
                0x00001a80       0x28 ./driverlib/can.o
                0x00001a80                CANIntRegister
 .text.CANIntUnregister
                0x00001aa8       0x24 ./driverlib/can.o
                0x00001aa8                CANIntUnregister
 .text.CANIntEnable
                0x00001acc       0x20 ./driverlib/can.o
                0x00001acc                CANIntEnable
 .text.CANIntDisable
                0x00001aec       0x24 ./driverlib/can.o
                0x00001aec                CANIntDisable
 .text.CANIntStatus
                0x00001b10       0x54 ./driverlib/can.o
                0x00001b10                CANIntStatus
 .text.CANIntClear
                0x00001b64       0x5c ./driverlib/can.o
                0x00001b64                CANIntClear
 .text.CANRetrySet
                0x00001bc0       0x3c ./driverlib/can.o
                0x00001bc0                CANRetrySet
 .text.CANRetryGet
                0x00001bfc       0x28 ./driverlib/can.o
                0x00001bfc                CANRetryGet
 .text.CANStatusGet
                0x00001c24       0xa8 ./driverlib/can.o
                0x00001c24                CANStatusGet
 .text.CANErrCntrGet
                0x00001ccc       0x44 ./driverlib/can.o
                0x00001ccc                CANErrCntrGet
 .text.CANMessageSet
                0x00001d10      0x278 ./driverlib/can.o
                0x00001d10                CANMessageSet
 .text.CANMessageGet
                0x00001f88      0x244 ./driverlib/can.o
                0x00001f88                CANMessageGet
 .text.CANMessageClear
                0x000021cc       0x50 ./driverlib/can.o
                0x000021cc                CANMessageClear
 .text.ComparatorConfigure
                0x0000221c       0x28 ./driverlib/comp.o
                0x0000221c                ComparatorConfigure
 .text.ComparatorRefSet
                0x00002244       0x20 ./driverlib/comp.o
                0x00002244                ComparatorRefSet
 .text.ComparatorValueGet
                0x00002264       0x30 ./driverlib/comp.o
                0x00002264                ComparatorValueGet
 .text.ComparatorIntRegister
                0x00002294       0x40 ./driverlib/comp.o
                0x00002294                ComparatorIntRegister
 .text.ComparatorIntUnregister
                0x000022d4       0x40 ./driverlib/comp.o
                0x000022d4                ComparatorIntUnregister
 .text.ComparatorIntEnable
                0x00002314       0x2c ./driverlib/comp.o
                0x00002314                ComparatorIntEnable
 .text.ComparatorIntDisable
                0x00002340       0x30 ./driverlib/comp.o
                0x00002340                ComparatorIntDisable
 .text.ComparatorIntStatus
                0x00002370       0x54 ./driverlib/comp.o
                0x00002370                ComparatorIntStatus
 .text.ComparatorIntClear
                0x000023c4       0x20 ./driverlib/comp.o
                0x000023c4                ComparatorIntClear
 .text.CPUcpsid
                0x000023e4       0x10 ./driverlib/cpu.o
                0x000023e4                CPUcpsid
 .text.CPUprimask
                0x000023f4        0xc ./driverlib/cpu.o
                0x000023f4                CPUprimask
 .text.CPUcpsie
                0x00002400       0x10 ./driverlib/cpu.o
                0x00002400                CPUcpsie
 .text.CPUwfi   0x00002410        0x4 ./driverlib/cpu.o
                0x00002410                CPUwfi
 .text.CPUbasepriSet
                0x00002414        0x8 ./driverlib/cpu.o
                0x00002414                CPUbasepriSet
 .text.CPUbasepriGet
                0x0000241c        0xc ./driverlib/cpu.o
                0x0000241c                CPUbasepriGet
 .text.CRCConfigSet
                0x00002428       0x20 ./driverlib/crc.o
                0x00002428                CRCConfigSet
 .text.CRCSeedSet
                0x00002448       0x20 ./driverlib/crc.o
                0x00002448                CRCSeedSet
 .text.CRCDataWrite
                0x00002468       0x20 ./driverlib/crc.o
                0x00002468                CRCDataWrite
 .text.CRCResultRead
                0x00002488       0x30 ./driverlib/crc.o
                0x00002488                CRCResultRead
 .text.CRCDataProcess
                0x000024b8       0x74 ./driverlib/crc.o
                0x000024b8                CRCDataProcess
 .text.DESReset
                0x0000252c       0x34 ./driverlib/des.o
                0x0000252c                DESReset
 .text.DESConfigSet
                0x00002560       0x30 ./driverlib/des.o
                0x00002560                DESConfigSet
 .text.DESKeySet
                0x00002590       0x68 ./driverlib/des.o
                0x00002590                DESKeySet
 .text.DESIVSet
                0x000025f8       0x40 ./driverlib/des.o
                0x000025f8                DESIVSet
 .text.DESLengthSet
                0x00002638       0x20 ./driverlib/des.o
                0x00002638                DESLengthSet
 .text.DESDataReadNonBlocking
                0x00002658       0x44 ./driverlib/des.o
                0x00002658                DESDataReadNonBlocking
 .text.DESDataRead
                0x0000269c       0x40 ./driverlib/des.o
                0x0000269c                DESDataRead
 .text.DESDataWriteNonBlocking
                0x000026dc       0x44 ./driverlib/des.o
                0x000026dc                DESDataWriteNonBlocking
 .text.DESDataWrite
                0x00002720       0x3c ./driverlib/des.o
                0x00002720                DESDataWrite
 .text.DESDataProcess
                0x0000275c       0x78 ./driverlib/des.o
                0x0000275c                DESDataProcess
 .text.DESIntStatus
                0x000027d4       0x54 ./driverlib/des.o
                0x000027d4                DESIntStatus
 .text.DESIntEnable
                0x00002828       0x48 ./driverlib/des.o
                0x00002828                DESIntEnable
 .text.DESIntDisable
                0x00002870       0x4c ./driverlib/des.o
                0x00002870                DESIntDisable
 .text.DESIntClear
                0x000028bc       0x28 ./driverlib/des.o
                0x000028bc                DESIntClear
 .text.DESIntRegister
                0x000028e4       0x20 ./driverlib/des.o
                0x000028e4                DESIntRegister
 .text.DESIntUnregister
                0x00002904       0x1c ./driverlib/des.o
                0x00002904                DESIntUnregister
 .text.DESDMAEnable
                0x00002920       0x28 ./driverlib/des.o
                0x00002920                DESDMAEnable
 .text.DESDMADisable
                0x00002948       0x28 ./driverlib/des.o
                0x00002948                DESDMADisable
 .text._EEPROMSectorMaskSet
                0x00002970       0x50 ./driverlib/eeprom.o
 .text._EEPROMSectorMaskClear
                0x000029c0       0x38 ./driverlib/eeprom.o
 .text._EEPROMWaitForDone
                0x000029f8       0x20 ./driverlib/eeprom.o
 .text.EEPROMInit
                0x00002a18       0x5c ./driverlib/eeprom.o
                0x00002a18                EEPROMInit
 .text.EEPROMSizeGet
                0x00002a74       0x1c ./driverlib/eeprom.o
                0x00002a74                EEPROMSizeGet
 .text.EEPROMBlockCountGet
                0x00002a90       0x20 ./driverlib/eeprom.o
                0x00002a90                EEPROMBlockCountGet
 .text.EEPROMRead
                0x00002ab0       0x70 ./driverlib/eeprom.o
                0x00002ab0                EEPROMRead
 .text.EEPROMProgram
                0x00002b20      0x10c ./driverlib/eeprom.o
                0x00002b20                EEPROMProgram
 .text.EEPROMProgramNonBlocking
                0x00002c2c       0x6c ./driverlib/eeprom.o
                0x00002c2c                EEPROMProgramNonBlocking
 .text.EEPROMMassErase
                0x00002c98       0x60 ./driverlib/eeprom.o
                0x00002c98                EEPROMMassErase
 .text.EEPROMBlockProtectGet
                0x00002cf8       0x28 ./driverlib/eeprom.o
                0x00002cf8                EEPROMBlockProtectGet
 .text.EEPROMBlockProtectSet
                0x00002d20       0x40 ./driverlib/eeprom.o
                0x00002d20                EEPROMBlockProtectSet
 .text.EEPROMBlockPasswordSet
                0x00002d60       0x64 ./driverlib/eeprom.o
                0x00002d60                EEPROMBlockPasswordSet
 .text.EEPROMBlockLock
                0x00002dc4       0x30 ./driverlib/eeprom.o
                0x00002dc4                EEPROMBlockLock
 .text.EEPROMBlockUnlock
                0x00002df4       0x5c ./driverlib/eeprom.o
                0x00002df4                EEPROMBlockUnlock
 .text.EEPROMBlockHide
                0x00002e50       0x24 ./driverlib/eeprom.o
                0x00002e50                EEPROMBlockHide
 .text.EEPROMIntEnable
                0x00002e74       0x34 ./driverlib/eeprom.o
                0x00002e74                EEPROMIntEnable
 .text.EEPROMIntDisable
                0x00002ea8       0x34 ./driverlib/eeprom.o
                0x00002ea8                EEPROMIntDisable
 .text.EEPROMIntStatus
                0x00002edc       0x40 ./driverlib/eeprom.o
                0x00002edc                EEPROMIntStatus
 .text.EEPROMIntClear
                0x00002f1c       0x40 ./driverlib/eeprom.o
                0x00002f1c                EEPROMIntClear
 .text.EEPROMStatusGet
                0x00002f5c       0x18 ./driverlib/eeprom.o
                0x00002f5c                EEPROMStatusGet
 .text.EMACInit
                0x00002f74       0xf4 ./driverlib/emac.o
                0x00002f74                EMACInit
 .text.EMACReset
                0x00003068       0x3c ./driverlib/emac.o
                0x00003068                EMACReset
 .text.EMACPHYConfigSet
                0x000030a4       0x88 ./driverlib/emac.o
                0x000030a4                EMACPHYConfigSet
 .text.EMACConfigSet
                0x0000312c       0x64 ./driverlib/emac.o
                0x0000312c                EMACConfigSet
 .text.EMACConfigGet
                0x00003190       0x70 ./driverlib/emac.o
                0x00003190                EMACConfigGet
 .text.EMACAddrSet
                0x00003200       0x78 ./driverlib/emac.o
                0x00003200                EMACAddrSet
 .text.EMACAddrGet
                0x00003278       0x74 ./driverlib/emac.o
                0x00003278                EMACAddrGet
 .text.EMACNumAddrGet
                0x000032ec       0x18 ./driverlib/emac.o
                0x000032ec                EMACNumAddrGet
 .text.EMACAddrFilterSet
                0x00003304       0x54 ./driverlib/emac.o
                0x00003304                EMACAddrFilterSet
 .text.EMACAddrFilterGet
                0x00003358       0x28 ./driverlib/emac.o
                0x00003358                EMACAddrFilterGet
 .text.EMACFrameFilterSet
                0x00003380       0x30 ./driverlib/emac.o
                0x00003380                EMACFrameFilterSet
 .text.EMACFrameFilterGet
                0x000033b0       0x24 ./driverlib/emac.o
                0x000033b0                EMACFrameFilterGet
 .text.EMACHashFilterSet
                0x000033d4       0x2c ./driverlib/emac.o
                0x000033d4                EMACHashFilterSet
 .text.EMACHashFilterGet
                0x00003400       0x2c ./driverlib/emac.o
                0x00003400                EMACHashFilterGet
 .text.EMACHashFilterBitCalculate
                0x0000342c       0x54 ./driverlib/emac.o
                0x0000342c                EMACHashFilterBitCalculate
 .text.EMACRxWatchdogTimerSet
                0x00003480       0x24 ./driverlib/emac.o
                0x00003480                EMACRxWatchdogTimerSet
 .text.EMACStatusGet
                0x000034a4       0x1c ./driverlib/emac.o
                0x000034a4                EMACStatusGet
 .text.EMACTxDMAPollDemand
                0x000034c0       0x20 ./driverlib/emac.o
                0x000034c0                EMACTxDMAPollDemand
 .text.EMACRxDMAPollDemand
                0x000034e0       0x20 ./driverlib/emac.o
                0x000034e0                EMACRxDMAPollDemand
 .text.EMACRxDMADescriptorListSet
                0x00003500       0x20 ./driverlib/emac.o
                0x00003500                EMACRxDMADescriptorListSet
 .text.EMACRxDMADescriptorListGet
                0x00003520       0x1c ./driverlib/emac.o
                0x00003520                EMACRxDMADescriptorListGet
 .text.EMACRxDMACurrentDescriptorGet
                0x0000353c       0x1c ./driverlib/emac.o
                0x0000353c                EMACRxDMACurrentDescriptorGet
 .text.EMACRxDMACurrentBufferGet
                0x00003558       0x1c ./driverlib/emac.o
                0x00003558                EMACRxDMACurrentBufferGet
 .text.EMACTxDMADescriptorListSet
                0x00003574       0x20 ./driverlib/emac.o
                0x00003574                EMACTxDMADescriptorListSet
 .text.EMACTxDMADescriptorListGet
                0x00003594       0x1c ./driverlib/emac.o
                0x00003594                EMACTxDMADescriptorListGet
 .text.EMACTxDMACurrentDescriptorGet
                0x000035b0       0x1c ./driverlib/emac.o
                0x000035b0                EMACTxDMACurrentDescriptorGet
 .text.EMACTxDMACurrentBufferGet
                0x000035cc       0x1c ./driverlib/emac.o
                0x000035cc                EMACTxDMACurrentBufferGet
 .text.EMACDMAStateGet
                0x000035e8       0x24 ./driverlib/emac.o
                0x000035e8                EMACDMAStateGet
 .text.EMACTxFlush
                0x0000360c       0x48 ./driverlib/emac.o
                0x0000360c                EMACTxFlush
 .text.EMACTxEnable
                0x00003654       0x34 ./driverlib/emac.o
                0x00003654                EMACTxEnable
 .text.EMACTxDisable
                0x00003688       0x34 ./driverlib/emac.o
                0x00003688                EMACTxDisable
 .text.EMACRxEnable
                0x000036bc       0x34 ./driverlib/emac.o
                0x000036bc                EMACRxEnable
 .text.EMACRxDisable
                0x000036f0       0x34 ./driverlib/emac.o
                0x000036f0                EMACRxDisable
 .text.EMACIntRegister
                0x00003724       0x20 ./driverlib/emac.o
                0x00003724                EMACIntRegister
 .text.EMACIntUnregister
                0x00003744       0x1c ./driverlib/emac.o
                0x00003744                EMACIntUnregister
 .text.EMACIntEnable
                0x00003760       0x7c ./driverlib/emac.o
                0x00003760                EMACIntEnable
 .text.EMACIntDisable
                0x000037dc       0x7c ./driverlib/emac.o
                0x000037dc                EMACIntDisable
 .text.EMACIntStatus
                0x00003858       0x78 ./driverlib/emac.o
                0x00003858                EMACIntStatus
 .text.EMACIntClear
                0x000038d0       0x74 ./driverlib/emac.o
                0x000038d0                EMACIntClear
 .text.EMACPHYWrite
                0x00003944       0x70 ./driverlib/emac.o
                0x00003944                EMACPHYWrite
 .text.EMACPHYRead
                0x000039b4       0x68 ./driverlib/emac.o
                0x000039b4                EMACPHYRead
 .text.EMACPHYExtendedRead
                0x00003a1c       0x58 ./driverlib/emac.o
                0x00003a1c                EMACPHYExtendedRead
 .text.EMACPHYExtendedWrite
                0x00003a74       0x60 ./driverlib/emac.o
                0x00003a74                EMACPHYExtendedWrite
 .text.EMACPHYPowerOff
                0x00003ad4       0x3c ./driverlib/emac.o
                0x00003ad4                EMACPHYPowerOff
 .text.EMACPHYPowerOn
                0x00003b10       0x3c ./driverlib/emac.o
                0x00003b10                EMACPHYPowerOn
 .text.EMACTimestampConfigSet
                0x00003b4c       0x48 ./driverlib/emac.o
                0x00003b4c                EMACTimestampConfigSet
 .text.EMACTimestampConfigGet
                0x00003b94       0x2c ./driverlib/emac.o
                0x00003b94                EMACTimestampConfigGet
 .text.EMACTimestampEnable
                0x00003bc0       0x50 ./driverlib/emac.o
                0x00003bc0                EMACTimestampEnable
 .text.EMACTimestampDisable
                0x00003c10       0x28 ./driverlib/emac.o
                0x00003c10                EMACTimestampDisable
 .text.EMACTimestampSysTimeSet
                0x00003c38       0x58 ./driverlib/emac.o
                0x00003c38                EMACTimestampSysTimeSet
 .text.EMACTimestampSysTimeGet
                0x00003c90       0x40 ./driverlib/emac.o
                0x00003c90                EMACTimestampSysTimeGet
 .text.EMACTimestampSysTimeUpdate
                0x00003cd0       0x68 ./driverlib/emac.o
                0x00003cd0                EMACTimestampSysTimeUpdate
 .text.EMACTimestampAddendSet
                0x00003d38       0x48 ./driverlib/emac.o
                0x00003d38                EMACTimestampAddendSet
 .text.EMACTimestampTargetSet
                0x00003d80       0x3c ./driverlib/emac.o
                0x00003d80                EMACTimestampTargetSet
 .text.EMACTimestampTargetIntEnable
                0x00003dbc       0x28 ./driverlib/emac.o
                0x00003dbc                EMACTimestampTargetIntEnable
 .text.EMACTimestampTargetIntDisable
                0x00003de4       0x28 ./driverlib/emac.o
                0x00003de4                EMACTimestampTargetIntDisable
 .text.EMACTimestampIntStatus
                0x00003e0c       0x1c ./driverlib/emac.o
                0x00003e0c                EMACTimestampIntStatus
 .text.EMACTimestampPPSSimpleModeSet
                0x00003e28       0x50 ./driverlib/emac.o
                0x00003e28                EMACTimestampPPSSimpleModeSet
 .text.EMACTimestampPPSCommandModeSet
                0x00003e78       0x38 ./driverlib/emac.o
                0x00003e78                EMACTimestampPPSCommandModeSet
 .text.EMACTimestampPPSCommand
                0x00003eb0       0x3c ./driverlib/emac.o
                0x00003eb0                EMACTimestampPPSCommand
 .text.EMACTimestampPPSPeriodSet
                0x00003eec       0x30 ./driverlib/emac.o
                0x00003eec                EMACTimestampPPSPeriodSet
 .text.EMACVLANRxConfigSet
                0x00003f1c       0x28 ./driverlib/emac.o
                0x00003f1c                EMACVLANRxConfigSet
 .text.EMACVLANRxConfigGet
                0x00003f44       0x2c ./driverlib/emac.o
                0x00003f44                EMACVLANRxConfigGet
 .text.EMACVLANTxConfigSet
                0x00003f70       0x28 ./driverlib/emac.o
                0x00003f70                EMACVLANTxConfigSet
 .text.EMACVLANTxConfigGet
                0x00003f98       0x30 ./driverlib/emac.o
                0x00003f98                EMACVLANTxConfigGet
 .text.EMACVLANHashFilterBitCalculate
                0x00003fc8       0x58 ./driverlib/emac.o
                0x00003fc8                EMACVLANHashFilterBitCalculate
 .text.EMACVLANHashFilterSet
                0x00004020       0x20 ./driverlib/emac.o
                0x00004020                EMACVLANHashFilterSet
 .text.EMACVLANHashFilterGet
                0x00004040       0x1c ./driverlib/emac.o
                0x00004040                EMACVLANHashFilterGet
 .text.EMACRemoteWakeUpFrameFilterSet
                0x0000405c       0x50 ./driverlib/emac.o
                0x0000405c                EMACRemoteWakeUpFrameFilterSet
 .text.EMACRemoteWakeUpFrameFilterGet
                0x000040ac       0x4c ./driverlib/emac.o
                0x000040ac                EMACRemoteWakeUpFrameFilterGet
 .text.EMACPowerManagementControlSet
                0x000040f8       0x3c ./driverlib/emac.o
                0x000040f8                EMACPowerManagementControlSet
 .text.EMACPowerManagementControlGet
                0x00004134       0x20 ./driverlib/emac.o
                0x00004134                EMACPowerManagementControlGet
 .text.EMACPowerManagementStatusGet
                0x00004154       0x20 ./driverlib/emac.o
                0x00004154                EMACPowerManagementStatusGet
 .text.EPIWorkaroundWordWrite
                0x00004174       0x24 ./driverlib/epi.o
                0x00004174                EPIWorkaroundWordWrite
 .text.EPIWorkaroundWordRead
                0x00004198       0x28 ./driverlib/epi.o
                0x00004198                EPIWorkaroundWordRead
 .text.EPIWorkaroundHWordWrite
                0x000041c0       0x28 ./driverlib/epi.o
                0x000041c0                EPIWorkaroundHWordWrite
 .text.EPIWorkaroundHWordRead
                0x000041e8       0x20 ./driverlib/epi.o
                0x000041e8                EPIWorkaroundHWordRead
 .text.EPIWorkaroundByteWrite
                0x00004208       0x28 ./driverlib/epi.o
                0x00004208                EPIWorkaroundByteWrite
 .text.EPIWorkaroundByteRead
                0x00004230       0x20 ./driverlib/epi.o
                0x00004230                EPIWorkaroundByteRead
 .text.EPIModeSet
                0x00004250       0x1c ./driverlib/epi.o
                0x00004250                EPIModeSet
 .text.EPIDividerSet
                0x0000426c       0x20 ./driverlib/epi.o
                0x0000426c                EPIDividerSet
 .text.EPIDividerCSSet
                0x0000428c       0x90 ./driverlib/epi.o
                0x0000428c                EPIDividerCSSet
 .text.EPIDMATxCount
                0x0000431c       0x24 ./driverlib/epi.o
                0x0000431c                EPIDMATxCount
 .text.EPIConfigSDRAMSet
                0x00004340       0x38 ./driverlib/epi.o
                0x00004340                EPIConfigSDRAMSet
 .text.EPIConfigHB8Set
                0x00004378       0x58 ./driverlib/epi.o
                0x00004378                EPIConfigHB8Set
 .text.EPIConfigHB16Set
                0x000043d0       0x58 ./driverlib/epi.o
                0x000043d0                EPIConfigHB16Set
 .text.EPIConfigHB8CSSet
                0x00004428       0x54 ./driverlib/epi.o
                0x00004428                EPIConfigHB8CSSet
 .text.EPIConfigHB16CSSet
                0x0000447c       0x54 ./driverlib/epi.o
                0x0000447c                EPIConfigHB16CSSet
 .text.EPIConfigHB8TimingSet
                0x000044d0       0x28 ./driverlib/epi.o
                0x000044d0                EPIConfigHB8TimingSet
 .text.EPIConfigHB16TimingSet
                0x000044f8       0x28 ./driverlib/epi.o
                0x000044f8                EPIConfigHB16TimingSet
 .text.EPIPSRAMConfigRegSet
                0x00004520       0x58 ./driverlib/epi.o
                0x00004520                EPIPSRAMConfigRegSet
 .text.EPIPSRAMConfigRegRead
                0x00004578       0x48 ./driverlib/epi.o
                0x00004578                EPIPSRAMConfigRegRead
 .text.EPIPSRAMConfigRegGetNonBlocking
                0x000045c0       0x58 ./driverlib/epi.o
                0x000045c0                EPIPSRAMConfigRegGetNonBlocking
 .text.EPIPSRAMConfigRegGet
                0x00004618       0x50 ./driverlib/epi.o
                0x00004618                EPIPSRAMConfigRegGet
 .text.EPIConfigGPModeSet
                0x00004668       0x34 ./driverlib/epi.o
                0x00004668                EPIConfigGPModeSet
 .text.EPIAddressMapSet
                0x0000469c       0x20 ./driverlib/epi.o
                0x0000469c                EPIAddressMapSet
 .text.EPINonBlockingReadConfigure
                0x000046bc       0x3c ./driverlib/epi.o
                0x000046bc                EPINonBlockingReadConfigure
 .text.EPINonBlockingReadStart
                0x000046f8       0x2c ./driverlib/epi.o
                0x000046f8                EPINonBlockingReadStart
 .text.EPINonBlockingReadStop
                0x00004724       0x28 ./driverlib/epi.o
                0x00004724                EPINonBlockingReadStop
 .text.EPINonBlockingReadCount
                0x0000474c       0x28 ./driverlib/epi.o
                0x0000474c                EPINonBlockingReadCount
 .text.EPINonBlockingReadAvail
                0x00004774       0x1c ./driverlib/epi.o
                0x00004774                EPINonBlockingReadAvail
 .text.EPINonBlockingReadGet32
                0x00004790       0x4c ./driverlib/epi.o
                0x00004790                EPINonBlockingReadGet32
 .text.EPINonBlockingReadGet16
                0x000047dc       0x4c ./driverlib/epi.o
                0x000047dc                EPINonBlockingReadGet16
 .text.EPINonBlockingReadGet8
                0x00004828       0x4c ./driverlib/epi.o
                0x00004828                EPINonBlockingReadGet8
 .text.EPIFIFOConfig
                0x00004874       0x20 ./driverlib/epi.o
                0x00004874                EPIFIFOConfig
 .text.EPIWriteFIFOCountGet
                0x00004894       0x1c ./driverlib/epi.o
                0x00004894                EPIWriteFIFOCountGet
 .text.EPIIntEnable
                0x000048b0       0x2c ./driverlib/epi.o
                0x000048b0                EPIIntEnable
 .text.EPIIntDisable
                0x000048dc       0x2c ./driverlib/epi.o
                0x000048dc                EPIIntDisable
 .text.EPIIntStatus
                0x00004908       0x30 ./driverlib/epi.o
                0x00004908                EPIIntStatus
 .text.EPIIntErrorStatus
                0x00004938       0x1c ./driverlib/epi.o
                0x00004938                EPIIntErrorStatus
 .text.EPIIntErrorClear
                0x00004954       0x20 ./driverlib/epi.o
                0x00004954                EPIIntErrorClear
 .text._EPIIntNumberGet
                0x00004974       0x38 ./driverlib/epi.o
 .text.EPIIntRegister
                0x000049ac       0x28 ./driverlib/epi.o
                0x000049ac                EPIIntRegister
 .text.EPIIntUnregister
                0x000049d4       0x24 ./driverlib/epi.o
                0x000049d4                EPIIntUnregister
 .text.FlashErase
                0x000049f8       0x60 ./driverlib/flash.o
                0x000049f8                FlashErase
 .text.FlashProgram
                0x00004a58       0xb4 ./driverlib/flash.o
                0x00004a58                FlashProgram
 .text.FlashProtectGet
                0x00004b0c       0x78 ./driverlib/flash.o
                0x00004b0c                FlashProtectGet
 .text.FlashProtectSet
                0x00004b84       0xf4 ./driverlib/flash.o
                0x00004b84                FlashProtectSet
 .text.FlashProtectSave
                0x00004c78       0x4c ./driverlib/flash.o
                0x00004c78                FlashProtectSave
 .text.FlashUserGet
                0x00004cc4       0x30 ./driverlib/flash.o
                0x00004cc4                FlashUserGet
 .text.FlashUserSet
                0x00004cf4       0x2c ./driverlib/flash.o
                0x00004cf4                FlashUserSet
 .text.FlashAllUserRegisterGet
                0x00004d20       0x4c ./driverlib/flash.o
                0x00004d20                FlashAllUserRegisterGet
 .text.FlashAllUserRegisterSet
                0x00004d6c       0x44 ./driverlib/flash.o
                0x00004d6c                FlashAllUserRegisterSet
 .text.FlashUserSave
                0x00004db0       0x58 ./driverlib/flash.o
                0x00004db0                FlashUserSave
 .text.FlashIntRegister
                0x00004e08       0x1c ./driverlib/flash.o
                0x00004e08                FlashIntRegister
 .text.FlashIntUnregister
                0x00004e24       0x14 ./driverlib/flash.o
                0x00004e24                FlashIntUnregister
 .text.FlashIntEnable
                0x00004e38       0x24 ./driverlib/flash.o
                0x00004e38                FlashIntEnable
 .text.FlashIntDisable
                0x00004e5c       0x24 ./driverlib/flash.o
                0x00004e5c                FlashIntDisable
 .text.FlashIntStatus
                0x00004e80       0x30 ./driverlib/flash.o
                0x00004e80                FlashIntStatus
 .text.FlashIntClear
                0x00004eb0       0x1c ./driverlib/flash.o
                0x00004eb0                FlashIntClear
 .text.FPUEnable
                0x00004ecc       0x1c ./driverlib/fpu.o
                0x00004ecc                FPUEnable
 .text.FPUDisable
                0x00004ee8       0x1c ./driverlib/fpu.o
                0x00004ee8                FPUDisable
 .text.FPUStackingEnable
                0x00004f04       0x20 ./driverlib/fpu.o
                0x00004f04                FPUStackingEnable
 .text.FPULazyStackingEnable
                0x00004f24       0x1c ./driverlib/fpu.o
                0x00004f24                FPULazyStackingEnable
 .text.FPUStackingDisable
                0x00004f40       0x1c ./driverlib/fpu.o
                0x00004f40                FPUStackingDisable
 .text.FPUHalfPrecisionModeSet
                0x00004f5c       0x28 ./driverlib/fpu.o
                0x00004f5c                FPUHalfPrecisionModeSet
 .text.FPUNaNModeSet
                0x00004f84       0x28 ./driverlib/fpu.o
                0x00004f84                FPUNaNModeSet
 .text.FPUFlushToZeroModeSet
                0x00004fac       0x28 ./driverlib/fpu.o
                0x00004fac                FPUFlushToZeroModeSet
 .text.FPURoundingModeSet
                0x00004fd4       0x28 ./driverlib/fpu.o
                0x00004fd4                FPURoundingModeSet
 .text._GPIOIntNumberGet
                0x00004ffc       0x78 ./driverlib/gpio.o
 .text.GPIODirModeSet
                0x00005074       0x78 ./driverlib/gpio.o
                0x00005074                GPIODirModeSet
 .text.GPIODirModeGet
                0x000050ec       0x5c ./driverlib/gpio.o
                0x000050ec                GPIODirModeGet
 .text.GPIOIntTypeSet
                0x00005148       0xd8 ./driverlib/gpio.o
                0x00005148                GPIOIntTypeSet
 .text.GPIOIntTypeGet
                0x00005220       0x98 ./driverlib/gpio.o
                0x00005220                GPIOIntTypeGet
 .text.GPIOPadConfigSet
                0x000052b8      0x2bc ./driverlib/gpio.o
                0x000052b8                GPIOPadConfigSet
 .text.GPIOPadConfigGet
                0x00005574      0x180 ./driverlib/gpio.o
                0x00005574                GPIOPadConfigGet
 .text.GPIOIntEnable
                0x000056f4       0x2c ./driverlib/gpio.o
                0x000056f4                GPIOIntEnable
 .text.GPIOIntDisable
                0x00005720       0x2c ./driverlib/gpio.o
                0x00005720                GPIOIntDisable
 .text.GPIOIntStatus
                0x0000574c       0x30 ./driverlib/gpio.o
                0x0000574c                GPIOIntStatus
 .text.GPIOIntClear
                0x0000577c       0x20 ./driverlib/gpio.o
                0x0000577c                GPIOIntClear
 .text.GPIOIntRegister
                0x0000579c       0x28 ./driverlib/gpio.o
                0x0000579c                GPIOIntRegister
 .text.GPIOIntUnregister
                0x000057c4       0x24 ./driverlib/gpio.o
                0x000057c4                GPIOIntUnregister
 .text.GPIOPinRead
                0x000057e8       0x24 ./driverlib/gpio.o
                0x000057e8                GPIOPinRead
 .text.GPIOPinWrite
                0x0000580c       0x2c ./driverlib/gpio.o
                0x0000580c                GPIOPinWrite
 .text.GPIOPinTypeADC
                0x00005838       0x2c ./driverlib/gpio.o
                0x00005838                GPIOPinTypeADC
 .text.GPIOPinTypeCAN
                0x00005864       0x2c ./driverlib/gpio.o
                0x00005864                GPIOPinTypeCAN
 .text.GPIOPinTypeComparator
                0x00005890       0x2c ./driverlib/gpio.o
                0x00005890                GPIOPinTypeComparator
 .text.GPIOPinTypeComparatorOutput
                0x000058bc       0x2c ./driverlib/gpio.o
                0x000058bc                GPIOPinTypeComparatorOutput
 .text.GPIOPinTypeDIVSCLK
                0x000058e8       0x2c ./driverlib/gpio.o
                0x000058e8                GPIOPinTypeDIVSCLK
 .text.GPIOPinTypeEPI
                0x00005914       0x2c ./driverlib/gpio.o
                0x00005914                GPIOPinTypeEPI
 .text.GPIOPinTypeEthernetLED
                0x00005940       0x2c ./driverlib/gpio.o
                0x00005940                GPIOPinTypeEthernetLED
 .text.GPIOPinTypeEthernetMII
                0x0000596c       0x2c ./driverlib/gpio.o
                0x0000596c                GPIOPinTypeEthernetMII
 .text.GPIOPinTypeGPIOInput
                0x00005998       0x2c ./driverlib/gpio.o
                0x00005998                GPIOPinTypeGPIOInput
 .text.GPIOPinTypeGPIOOutput
                0x000059c4       0x2c ./driverlib/gpio.o
                0x000059c4                GPIOPinTypeGPIOOutput
 .text.GPIOPinTypeGPIOOutputOD
                0x000059f0       0x2c ./driverlib/gpio.o
                0x000059f0                GPIOPinTypeGPIOOutputOD
 .text.GPIOPinTypeHibernateRTCCLK
                0x00005a1c       0x2c ./driverlib/gpio.o
                0x00005a1c                GPIOPinTypeHibernateRTCCLK
 .text.GPIOPinTypeI2C
                0x00005a48       0x2c ./driverlib/gpio.o
                0x00005a48                GPIOPinTypeI2C
 .text.GPIOPinTypeI2CSCL
                0x00005a74       0x2c ./driverlib/gpio.o
                0x00005a74                GPIOPinTypeI2CSCL
 .text.GPIOPinTypeLCD
                0x00005aa0       0x2c ./driverlib/gpio.o
                0x00005aa0                GPIOPinTypeLCD
 .text.GPIOPinTypeOneWire
                0x00005acc       0x2c ./driverlib/gpio.o
                0x00005acc                GPIOPinTypeOneWire
 .text.GPIOPinTypePWM
                0x00005af8       0x2c ./driverlib/gpio.o
                0x00005af8                GPIOPinTypePWM
 .text.GPIOPinTypeQEI
                0x00005b24       0x2c ./driverlib/gpio.o
                0x00005b24                GPIOPinTypeQEI
 .text.GPIOPinTypeSSI
                0x00005b50       0x2c ./driverlib/gpio.o
                0x00005b50                GPIOPinTypeSSI
 .text.GPIOPinTypeTimer
                0x00005b7c       0x2c ./driverlib/gpio.o
                0x00005b7c                GPIOPinTypeTimer
 .text.GPIOPinTypeTrace
                0x00005ba8       0x2c ./driverlib/gpio.o
                0x00005ba8                GPIOPinTypeTrace
 .text.GPIOPinTypeUART
                0x00005bd4       0x2c ./driverlib/gpio.o
                0x00005bd4                GPIOPinTypeUART
 .text.GPIOPinTypeUSBAnalog
                0x00005c00       0x2c ./driverlib/gpio.o
                0x00005c00                GPIOPinTypeUSBAnalog
 .text.GPIOPinTypeUSBDigital
                0x00005c2c       0x2c ./driverlib/gpio.o
                0x00005c2c                GPIOPinTypeUSBDigital
 .text.GPIOPinTypeWakeHigh
                0x00005c58       0x30 ./driverlib/gpio.o
                0x00005c58                GPIOPinTypeWakeHigh
 .text.GPIOPinTypeWakeLow
                0x00005c88       0x30 ./driverlib/gpio.o
                0x00005c88                GPIOPinTypeWakeLow
 .text.GPIOPinWakeStatus
                0x00005cb8       0x1c ./driverlib/gpio.o
                0x00005cb8                GPIOPinWakeStatus
 .text.GPIOPinConfigure
                0x00005cd4       0x84 ./driverlib/gpio.o
                0x00005cd4                GPIOPinConfigure
 .text.GPIODMATriggerEnable
                0x00005d58       0x2c ./driverlib/gpio.o
                0x00005d58                GPIODMATriggerEnable
 .text.GPIODMATriggerDisable
                0x00005d84       0x30 ./driverlib/gpio.o
                0x00005d84                GPIODMATriggerDisable
 .text.GPIOADCTriggerEnable
                0x00005db4       0x2c ./driverlib/gpio.o
                0x00005db4                GPIOADCTriggerEnable
 .text.GPIOADCTriggerDisable
                0x00005de0       0x30 ./driverlib/gpio.o
                0x00005de0                GPIOADCTriggerDisable
 .text._HibernateWriteComplete
                0x00005e10       0x1c ./driverlib/hibernate.o
 .text.HibernateEnableExpClk
                0x00005e2c       0x24 ./driverlib/hibernate.o
                0x00005e2c                HibernateEnableExpClk
 .text.HibernateDisable
                0x00005e50       0x1c ./driverlib/hibernate.o
                0x00005e50                HibernateDisable
 .text.HibernateClockConfig
                0x00005e6c       0x70 ./driverlib/hibernate.o
                0x00005e6c                HibernateClockConfig
 .text.HibernateRTCEnable
                0x00005edc       0x1c ./driverlib/hibernate.o
                0x00005edc                HibernateRTCEnable
 .text.HibernateRTCDisable
                0x00005ef8       0x1c ./driverlib/hibernate.o
                0x00005ef8                HibernateRTCDisable
 .text.HibernateBatCheckStart
                0x00005f14       0x1c ./driverlib/hibernate.o
                0x00005f14                HibernateBatCheckStart
 .text.HibernateBatCheckDone
                0x00005f30       0x1c ./driverlib/hibernate.o
                0x00005f30                HibernateBatCheckDone
 .text.HibernateWakeSet
                0x00005f4c       0x8c ./driverlib/hibernate.o
                0x00005f4c                HibernateWakeSet
 .text.HibernateWakeGet
                0x00005fd8       0x58 ./driverlib/hibernate.o
                0x00005fd8                HibernateWakeGet
 .text.HibernateLowBatSet
                0x00006030       0x2c ./driverlib/hibernate.o
                0x00006030                HibernateLowBatSet
 .text.HibernateLowBatGet
                0x0000605c       0x1c ./driverlib/hibernate.o
                0x0000605c                HibernateLowBatGet
 .text.HibernateRTCSet
                0x00006078       0x38 ./driverlib/hibernate.o
                0x00006078                HibernateRTCSet
 .text.HibernateRTCGet
                0x000060b0       0x18 ./driverlib/hibernate.o
                0x000060b0                HibernateRTCGet
 .text.HibernateRTCMatchSet
                0x000060c8       0x20 ./driverlib/hibernate.o
                0x000060c8                HibernateRTCMatchSet
 .text.HibernateRTCMatchGet
                0x000060e8       0x1c ./driverlib/hibernate.o
                0x000060e8                HibernateRTCMatchGet
 .text.HibernateRTCSSMatchSet
                0x00006104       0x20 ./driverlib/hibernate.o
                0x00006104                HibernateRTCSSMatchSet
 .text.HibernateRTCSSMatchGet
                0x00006124       0x20 ./driverlib/hibernate.o
                0x00006124                HibernateRTCSSMatchGet
 .text.HibernateRTCSSGet
                0x00006144       0x1c ./driverlib/hibernate.o
                0x00006144                HibernateRTCSSGet
 .text.HibernateRTCTrimSet
                0x00006160       0x1c ./driverlib/hibernate.o
                0x00006160                HibernateRTCTrimSet
 .text.HibernateRTCTrimGet
                0x0000617c       0x18 ./driverlib/hibernate.o
                0x0000617c                HibernateRTCTrimGet
 .text.HibernateDataSet
                0x00006194       0x44 ./driverlib/hibernate.o
                0x00006194                HibernateDataSet
 .text.HibernateDataGet
                0x000061d8       0x40 ./driverlib/hibernate.o
                0x000061d8                HibernateDataGet
 .text.HibernateRequest
                0x00006218       0x1c ./driverlib/hibernate.o
                0x00006218                HibernateRequest
 .text.HibernateIntEnable
                0x00006234       0x24 ./driverlib/hibernate.o
                0x00006234                HibernateIntEnable
 .text.HibernateIntDisable
                0x00006258       0x24 ./driverlib/hibernate.o
                0x00006258                HibernateIntDisable
 .text._HibernateIntNumberGet
                0x0000627c       0x38 ./driverlib/hibernate.o
 .text.HibernateIntRegister
                0x000062b4       0x24 ./driverlib/hibernate.o
                0x000062b4                HibernateIntRegister
 .text.HibernateIntUnregister
                0x000062d8       0x20 ./driverlib/hibernate.o
                0x000062d8                HibernateIntUnregister
 .text.HibernateIntStatus
                0x000062f8       0x30 ./driverlib/hibernate.o
                0x000062f8                HibernateIntStatus
 .text.HibernateIntClear
                0x00006328       0x24 ./driverlib/hibernate.o
                0x00006328                HibernateIntClear
 .text.HibernateIsActive
                0x0000634c       0x24 ./driverlib/hibernate.o
                0x0000634c                HibernateIsActive
 .text.HibernateGPIORetentionEnable
                0x00006370       0x20 ./driverlib/hibernate.o
                0x00006370                HibernateGPIORetentionEnable
 .text.HibernateGPIORetentionDisable
                0x00006390       0x20 ./driverlib/hibernate.o
                0x00006390                HibernateGPIORetentionDisable
 .text.HibernateGPIORetentionGet
                0x000063b0       0x2c ./driverlib/hibernate.o
                0x000063b0                HibernateGPIORetentionGet
 .text.HibernateCounterMode
                0x000063dc       0x1c ./driverlib/hibernate.o
                0x000063dc                HibernateCounterMode
 .text._HibernateCalendarSet
                0x000063f8      0x150 ./driverlib/hibernate.o
 .text.HibernateCalendarSet
                0x00006548       0x1c ./driverlib/hibernate.o
                0x00006548                HibernateCalendarSet
 .text.HibernateCalendarGet
                0x00006564       0xcc ./driverlib/hibernate.o
                0x00006564                HibernateCalendarGet
 .text.HibernateCalendarMatchSet
                0x00006630       0x1c ./driverlib/hibernate.o
                0x00006630                HibernateCalendarMatchSet
 .text.HibernateCalendarMatchGet
                0x0000664c       0xcc ./driverlib/hibernate.o
                0x0000664c                HibernateCalendarMatchGet
 .text.HibernateTamperEventsConfig
                0x00006718       0x48 ./driverlib/hibernate.o
                0x00006718                HibernateTamperEventsConfig
 .text.HibernateTamperEnable
                0x00006760       0x38 ./driverlib/hibernate.o
                0x00006760                HibernateTamperEnable
 .text.HibernateTamperDisable
                0x00006798       0x38 ./driverlib/hibernate.o
                0x00006798                HibernateTamperDisable
 .text.HibernateTamperIOEnable
                0x000067d0       0x68 ./driverlib/hibernate.o
                0x000067d0                HibernateTamperIOEnable
 .text.HibernateTamperIODisable
                0x00006838       0x48 ./driverlib/hibernate.o
                0x00006838                HibernateTamperIODisable
 .text.HibernateTamperEventsClear
                0x00006880       0x38 ./driverlib/hibernate.o
                0x00006880                HibernateTamperEventsClear
 .text.HibernateTamperEventsClearNoLock
                0x000068b8       0x1c ./driverlib/hibernate.o
                0x000068b8                HibernateTamperEventsClearNoLock
 .text.HibernateTamperUnLock
                0x000068d4       0x18 ./driverlib/hibernate.o
                0x000068d4                HibernateTamperUnLock
 .text.HibernateTamperLock
                0x000068ec       0x18 ./driverlib/hibernate.o
                0x000068ec                HibernateTamperLock
 .text.HibernateTamperStatusGet
                0x00006904       0x74 ./driverlib/hibernate.o
                0x00006904                HibernateTamperStatusGet
 .text.HibernateTamperEventsGet
                0x00006978       0x98 ./driverlib/hibernate.o
                0x00006978                HibernateTamperEventsGet
 .text.HibernateTamperExtOscRecover
                0x00006a10       0x38 ./driverlib/hibernate.o
                0x00006a10                HibernateTamperExtOscRecover
 .text.HibernateTamperExtOscValid
                0x00006a48       0x1c ./driverlib/hibernate.o
                0x00006a48                HibernateTamperExtOscValid
 .text._I2CIntNumberGet
                0x00006a64       0x78 ./driverlib/i2c.o
 .text.I2CMasterInitExpClk
                0x00006adc       0x98 ./driverlib/i2c.o
                0x00006adc                I2CMasterInitExpClk
 .text.I2CSlaveInit
                0x00006b74       0x24 ./driverlib/i2c.o
                0x00006b74                I2CSlaveInit
 .text.I2CSlaveAddressSet
                0x00006b98       0x48 ./driverlib/i2c.o
                0x00006b98                I2CSlaveAddressSet
 .text.I2CMasterEnable
                0x00006be0       0x24 ./driverlib/i2c.o
                0x00006be0                I2CMasterEnable
 .text.I2CSlaveEnable
                0x00006c04       0x30 ./driverlib/i2c.o
                0x00006c04                I2CSlaveEnable
 .text.I2CMasterDisable
                0x00006c34       0x24 ./driverlib/i2c.o
                0x00006c34                I2CMasterDisable
 .text.I2CSlaveDisable
                0x00006c58       0x30 ./driverlib/i2c.o
                0x00006c58                I2CSlaveDisable
 .text.I2CIntRegister
                0x00006c88       0x28 ./driverlib/i2c.o
                0x00006c88                I2CIntRegister
 .text.I2CIntUnregister
                0x00006cb0       0x24 ./driverlib/i2c.o
                0x00006cb0                I2CIntUnregister
 .text.I2CMasterIntEnable
                0x00006cd4       0x1c ./driverlib/i2c.o
                0x00006cd4                I2CMasterIntEnable
 .text.I2CMasterIntEnableEx
                0x00006cf0       0x28 ./driverlib/i2c.o
                0x00006cf0                I2CMasterIntEnableEx
 .text.I2CSlaveIntEnable
                0x00006d18       0x28 ./driverlib/i2c.o
                0x00006d18                I2CSlaveIntEnable
 .text.I2CSlaveIntEnableEx
                0x00006d40       0x2c ./driverlib/i2c.o
                0x00006d40                I2CSlaveIntEnableEx
 .text.I2CMasterIntDisable
                0x00006d6c       0x1c ./driverlib/i2c.o
                0x00006d6c                I2CMasterIntDisable
 .text.I2CMasterIntDisableEx
                0x00006d88       0x28 ./driverlib/i2c.o
                0x00006d88                I2CMasterIntDisableEx
 .text.I2CSlaveIntDisable
                0x00006db0       0x28 ./driverlib/i2c.o
                0x00006db0                I2CSlaveIntDisable
 .text.I2CSlaveIntDisableEx
                0x00006dd8       0x2c ./driverlib/i2c.o
                0x00006dd8                I2CSlaveIntDisableEx
 .text.I2CMasterIntStatus
                0x00006e04       0x40 ./driverlib/i2c.o
                0x00006e04                I2CMasterIntStatus
 .text.I2CMasterIntStatusEx
                0x00006e44       0x2c ./driverlib/i2c.o
                0x00006e44                I2CMasterIntStatusEx
 .text.I2CSlaveIntStatus
                0x00006e70       0x44 ./driverlib/i2c.o
                0x00006e70                I2CSlaveIntStatus
 .text.I2CSlaveIntStatusEx
                0x00006eb4       0x30 ./driverlib/i2c.o
                0x00006eb4                I2CSlaveIntStatusEx
 .text.I2CMasterIntClear
                0x00006ee4       0x28 ./driverlib/i2c.o
                0x00006ee4                I2CMasterIntClear
 .text.I2CMasterIntClearEx
                0x00006f0c       0x20 ./driverlib/i2c.o
                0x00006f0c                I2CMasterIntClearEx
 .text.I2CSlaveIntClear
                0x00006f2c       0x20 ./driverlib/i2c.o
                0x00006f2c                I2CSlaveIntClear
 .text.I2CSlaveIntClearEx
                0x00006f4c       0x20 ./driverlib/i2c.o
                0x00006f4c                I2CSlaveIntClearEx
 .text.I2CMasterSlaveAddrSet
                0x00006f6c       0x28 ./driverlib/i2c.o
                0x00006f6c                I2CMasterSlaveAddrSet
 .text.I2CMasterLineStateGet
                0x00006f94       0x1c ./driverlib/i2c.o
                0x00006f94                I2CMasterLineStateGet
 .text.I2CMasterBusy
                0x00006fb0       0x28 ./driverlib/i2c.o
                0x00006fb0                I2CMasterBusy
 .text.I2CMasterBusBusy
                0x00006fd8       0x28 ./driverlib/i2c.o
                0x00006fd8                I2CMasterBusBusy
 .text.I2CMasterControl
                0x00007000       0x20 ./driverlib/i2c.o
                0x00007000                I2CMasterControl
 .text.I2CMasterErr
                0x00007020       0x40 ./driverlib/i2c.o
                0x00007020                I2CMasterErr
 .text.I2CMasterDataPut
                0x00007060       0x20 ./driverlib/i2c.o
                0x00007060                I2CMasterDataPut
 .text.I2CMasterDataGet
                0x00007080       0x1c ./driverlib/i2c.o
                0x00007080                I2CMasterDataGet
 .text.I2CMasterTimeoutSet
                0x0000709c       0x20 ./driverlib/i2c.o
                0x0000709c                I2CMasterTimeoutSet
 .text.I2CSlaveACKOverride
                0x000070bc       0x4c ./driverlib/i2c.o
                0x000070bc                I2CSlaveACKOverride
 .text.I2CSlaveACKValueSet
                0x00007108       0x4c ./driverlib/i2c.o
                0x00007108                I2CSlaveACKValueSet
 .text.I2CSlaveStatus
                0x00007154       0x1c ./driverlib/i2c.o
                0x00007154                I2CSlaveStatus
 .text.I2CSlaveDataPut
                0x00007170       0x24 ./driverlib/i2c.o
                0x00007170                I2CSlaveDataPut
 .text.I2CSlaveDataGet
                0x00007194       0x1c ./driverlib/i2c.o
                0x00007194                I2CSlaveDataGet
 .text.I2CTxFIFOConfigSet
                0x000071b0       0x40 ./driverlib/i2c.o
                0x000071b0                I2CTxFIFOConfigSet
 .text.I2CTxFIFOFlush
                0x000071f0       0x28 ./driverlib/i2c.o
                0x000071f0                I2CTxFIFOFlush
 .text.I2CRxFIFOConfigSet
                0x00007218       0x40 ./driverlib/i2c.o
                0x00007218                I2CRxFIFOConfigSet
 .text.I2CRxFIFOFlush
                0x00007258       0x28 ./driverlib/i2c.o
                0x00007258                I2CRxFIFOFlush
 .text.I2CFIFOStatus
                0x00007280       0x1c ./driverlib/i2c.o
                0x00007280                I2CFIFOStatus
 .text.I2CFIFODataPut
                0x0000729c       0x34 ./driverlib/i2c.o
                0x0000729c                I2CFIFODataPut
 .text.I2CFIFODataPutNonBlocking
                0x000072d0       0x3c ./driverlib/i2c.o
                0x000072d0                I2CFIFODataPutNonBlocking
 .text.I2CFIFODataGet
                0x0000730c       0x30 ./driverlib/i2c.o
                0x0000730c                I2CFIFODataGet
 .text.I2CFIFODataGetNonBlocking
                0x0000733c       0x3c ./driverlib/i2c.o
                0x0000733c                I2CFIFODataGetNonBlocking
 .text.I2CMasterBurstLengthSet
                0x00007378       0x20 ./driverlib/i2c.o
                0x00007378                I2CMasterBurstLengthSet
 .text.I2CMasterBurstCountGet
                0x00007398       0x1c ./driverlib/i2c.o
                0x00007398                I2CMasterBurstCountGet
 .text.I2CMasterGlitchFilterConfigSet
                0x000073b4       0x78 ./driverlib/i2c.o
                0x000073b4                I2CMasterGlitchFilterConfigSet
 .text.I2CSlaveFIFOEnable
                0x0000742c       0x24 ./driverlib/i2c.o
                0x0000742c                I2CSlaveFIFOEnable
 .text.I2CSlaveFIFODisable
                0x00007450       0x20 ./driverlib/i2c.o
                0x00007450                I2CSlaveFIFODisable
 .text.I2CLoopbackEnable
                0x00007470       0x24 ./driverlib/i2c.o
                0x00007470                I2CLoopbackEnable
 .text._IntDefaultHandler
                0x00007494        0x8 ./driverlib/interrupt.o
 .text.IntMasterEnable
                0x0000749c       0x18 ./driverlib/interrupt.o
                0x0000749c                IntMasterEnable
 .text.IntMasterDisable
                0x000074b4       0x18 ./driverlib/interrupt.o
                0x000074b4                IntMasterDisable
 .text.IntRegister
                0x000074cc       0x64 ./driverlib/interrupt.o
                0x000074cc                IntRegister
 .text.IntUnregister
                0x00007530       0x24 ./driverlib/interrupt.o
                0x00007530                IntUnregister
 .text.IntPriorityGroupingSet
                0x00007554       0x30 ./driverlib/interrupt.o
                0x00007554                IntPriorityGroupingSet
 .text.IntPriorityGroupingGet
                0x00007584       0x48 ./driverlib/interrupt.o
                0x00007584                IntPriorityGroupingGet
 .text.IntPrioritySet
                0x000075cc       0x64 ./driverlib/interrupt.o
                0x000075cc                IntPrioritySet
 .text.IntPriorityGet
                0x00007630       0x30 ./driverlib/interrupt.o
                0x00007630                IntPriorityGet
 .text.IntEnable
                0x00007660       0x94 ./driverlib/interrupt.o
                0x00007660                IntEnable
 .text.IntDisable
                0x000076f4       0x94 ./driverlib/interrupt.o
                0x000076f4                IntDisable
 .text.IntIsEnabled
                0x00007788       0x94 ./driverlib/interrupt.o
                0x00007788                IntIsEnabled
 .text.IntPendSet
                0x0000781c       0x7c ./driverlib/interrupt.o
                0x0000781c                IntPendSet
 .text.IntPendClear
                0x00007898       0x68 ./driverlib/interrupt.o
                0x00007898                IntPendClear
 .text.IntPriorityMaskSet
                0x00007900       0x14 ./driverlib/interrupt.o
                0x00007900                IntPriorityMaskSet
 .text.IntPriorityMaskGet
                0x00007914       0x10 ./driverlib/interrupt.o
                0x00007914                IntPriorityMaskGet
 .text.IntTrigger
                0x00007924       0x20 ./driverlib/interrupt.o
                0x00007924                IntTrigger
 .text.LCDModeSet
                0x00007944       0x58 ./driverlib/lcd.o
                0x00007944                LCDModeSet
 .text.LCDClockReset
                0x0000799c       0x2c ./driverlib/lcd.o
                0x0000799c                LCDClockReset
 .text.LCDIDDConfigSet
                0x000079c8       0x20 ./driverlib/lcd.o
                0x000079c8                LCDIDDConfigSet
 .text.LCDIDDTimingSet
                0x000079e8       0x6c ./driverlib/lcd.o
                0x000079e8                LCDIDDTimingSet
 .text.LCDIDDDMADisable
                0x00007a54       0x24 ./driverlib/lcd.o
                0x00007a54                LCDIDDDMADisable
 .text.LCDIDDCommandWrite
                0x00007a78       0x34 ./driverlib/lcd.o
                0x00007a78                LCDIDDCommandWrite
 .text.LCDIDDDataWrite
                0x00007aac       0x34 ./driverlib/lcd.o
                0x00007aac                LCDIDDDataWrite
 .text.LCDIDDIndexedWrite
                0x00007ae0       0x54 ./driverlib/lcd.o
                0x00007ae0                LCDIDDIndexedWrite
 .text.LCDIDDStatusRead
                0x00007b34       0x30 ./driverlib/lcd.o
                0x00007b34                LCDIDDStatusRead
 .text.LCDIDDDataRead
                0x00007b64       0x30 ./driverlib/lcd.o
                0x00007b64                LCDIDDDataRead
 .text.LCDIDDIndexedRead
                0x00007b94       0x4c ./driverlib/lcd.o
                0x00007b94                LCDIDDIndexedRead
 .text.LCDIDDDMAWrite
                0x00007be0       0x84 ./driverlib/lcd.o
                0x00007be0                LCDIDDDMAWrite
 .text.LCDRasterConfigSet
                0x00007c64       0x28 ./driverlib/lcd.o
                0x00007c64                LCDRasterConfigSet
 .text.LCDRasterTimingSet
                0x00007c8c       0xf0 ./driverlib/lcd.o
                0x00007c8c                LCDRasterTimingSet
 .text.LCDRasterACBiasIntCountSet
                0x00007d7c       0x40 ./driverlib/lcd.o
                0x00007d7c                LCDRasterACBiasIntCountSet
 .text.LCDRasterEnable
                0x00007dbc       0x28 ./driverlib/lcd.o
                0x00007dbc                LCDRasterEnable
 .text.LCDRasterEnabled
                0x00007de4       0x28 ./driverlib/lcd.o
                0x00007de4                LCDRasterEnabled
 .text.LCDRasterDisable
                0x00007e0c       0x24 ./driverlib/lcd.o
                0x00007e0c                LCDRasterDisable
 .text.LCDRasterSubPanelConfigSet
                0x00007e30       0x64 ./driverlib/lcd.o
                0x00007e30                LCDRasterSubPanelConfigSet
 .text.LCDRasterSubPanelEnable
                0x00007e94       0x24 ./driverlib/lcd.o
                0x00007e94                LCDRasterSubPanelEnable
 .text.LCDRasterSubPanelDisable
                0x00007eb8       0x24 ./driverlib/lcd.o
                0x00007eb8                LCDRasterSubPanelDisable
 .text.LCDDMAConfigSet
                0x00007edc       0x20 ./driverlib/lcd.o
                0x00007edc                LCDDMAConfigSet
 .text.LCDRasterPaletteSet
                0x00007efc       0xd4 ./driverlib/lcd.o
                0x00007efc                LCDRasterPaletteSet
 .text.LCDRasterFrameBufferSet
                0x00007fd0       0x58 ./driverlib/lcd.o
                0x00007fd0                LCDRasterFrameBufferSet
 .text.LCDIntEnable
                0x00008028       0x20 ./driverlib/lcd.o
                0x00008028                LCDIntEnable
 .text.LCDIntDisable
                0x00008048       0x20 ./driverlib/lcd.o
                0x00008048                LCDIntDisable
 .text.LCDIntStatus
                0x00008068       0x2c ./driverlib/lcd.o
                0x00008068                LCDIntStatus
 .text.LCDIntClear
                0x00008094       0x20 ./driverlib/lcd.o
                0x00008094                LCDIntClear
 .text.LCDIntRegister
                0x000080b4       0x20 ./driverlib/lcd.o
                0x000080b4                LCDIntRegister
 .text.LCDIntUnregister
                0x000080d4       0x1c ./driverlib/lcd.o
                0x000080d4                LCDIntUnregister
 .text.MPUEnable
                0x000080f0       0x20 ./driverlib/mpu.o
                0x000080f0                MPUEnable
 .text.MPUDisable
                0x00008110       0x1c ./driverlib/mpu.o
                0x00008110                MPUDisable
 .text.MPURegionCountGet
                0x0000812c       0x1c ./driverlib/mpu.o
                0x0000812c                MPURegionCountGet
 .text.MPURegionEnable
                0x00008148       0x2c ./driverlib/mpu.o
                0x00008148                MPURegionEnable
 .text.MPURegionDisable
                0x00008174       0x2c ./driverlib/mpu.o
                0x00008174                MPURegionDisable
 .text.MPURegionSet
                0x000081a0       0x3c ./driverlib/mpu.o
                0x000081a0                MPURegionSet
 .text.MPURegionGet
                0x000081dc       0x3c ./driverlib/mpu.o
                0x000081dc                MPURegionGet
 .text.MPUIntRegister
                0x00008218       0x1c ./driverlib/mpu.o
                0x00008218                MPUIntRegister
 .text.MPUIntUnregister
                0x00008234       0x14 ./driverlib/mpu.o
                0x00008234                MPUIntUnregister
 .text.OneWireInit
                0x00008248       0x1c ./driverlib/onewire.o
                0x00008248                OneWireInit
 .text.OneWireBusReset
                0x00008264       0x20 ./driverlib/onewire.o
                0x00008264                OneWireBusReset
 .text.OneWireBusStatus
                0x00008284       0x1c ./driverlib/onewire.o
                0x00008284                OneWireBusStatus
 .text.OneWireDataGet
                0x000082a0       0x2c ./driverlib/onewire.o
                0x000082a0                OneWireDataGet
 .text.OneWireDataGetNonBlocking
                0x000082cc       0x34 ./driverlib/onewire.o
                0x000082cc                OneWireDataGetNonBlocking
 .text.OneWireIntClear
                0x00008300       0x20 ./driverlib/onewire.o
                0x00008300                OneWireIntClear
 .text.OneWireIntDisable
                0x00008320       0x2c ./driverlib/onewire.o
                0x00008320                OneWireIntDisable
 .text.OneWireIntEnable
                0x0000834c       0x2c ./driverlib/onewire.o
                0x0000834c                OneWireIntEnable
 .text.OneWireIntStatus
                0x00008378       0x30 ./driverlib/onewire.o
                0x00008378                OneWireIntStatus
 .text._OneWireIntNumberGet
                0x000083a8       0x38 ./driverlib/onewire.o
 .text.OneWireIntRegister
                0x000083e0       0x28 ./driverlib/onewire.o
                0x000083e0                OneWireIntRegister
 .text.OneWireIntUnregister
                0x00008408       0x24 ./driverlib/onewire.o
                0x00008408                OneWireIntUnregister
 .text.OneWireDMADisable
                0x0000842c       0x40 ./driverlib/onewire.o
                0x0000842c                OneWireDMADisable
 .text.OneWireDMAEnable
                0x0000846c       0x78 ./driverlib/onewire.o
                0x0000846c                OneWireDMAEnable
 .text.OneWireTransaction
                0x000084e4       0x84 ./driverlib/onewire.o
                0x000084e4                OneWireTransaction
 .text.PWMGenConfigure
                0x00008568       0x6c ./driverlib/pwm.o
                0x00008568                PWMGenConfigure
 .text.PWMGenPeriodSet
                0x000085d4       0x44 ./driverlib/pwm.o
                0x000085d4                PWMGenPeriodSet
 .text.PWMGenPeriodGet
                0x00008618       0x3c ./driverlib/pwm.o
                0x00008618                PWMGenPeriodGet
 .text.PWMGenEnable
                0x00008654       0x2c ./driverlib/pwm.o
                0x00008654                PWMGenEnable
 .text.PWMGenDisable
                0x00008680       0x2c ./driverlib/pwm.o
                0x00008680                PWMGenDisable
 .text.PWMPulseWidthSet
                0x000086ac       0x64 ./driverlib/pwm.o
                0x000086ac                PWMPulseWidthSet
 .text.PWMPulseWidthGet
                0x00008710       0x64 ./driverlib/pwm.o
                0x00008710                PWMPulseWidthGet
 .text.PWMDeadBandEnable
                0x00008774       0x50 ./driverlib/pwm.o
                0x00008774                PWMDeadBandEnable
 .text.PWMDeadBandDisable
                0x000087c4       0x30 ./driverlib/pwm.o
                0x000087c4                PWMDeadBandDisable
 .text.PWMSyncUpdate
                0x000087f4       0x1c ./driverlib/pwm.o
                0x000087f4                PWMSyncUpdate
 .text.PWMSyncTimeBase
                0x00008810       0x20 ./driverlib/pwm.o
                0x00008810                PWMSyncTimeBase
 .text.PWMOutputState
                0x00008830       0x48 ./driverlib/pwm.o
                0x00008830                PWMOutputState
 .text.PWMOutputInvert
                0x00008878       0x48 ./driverlib/pwm.o
                0x00008878                PWMOutputInvert
 .text.PWMOutputFaultLevel
                0x000088c0       0x48 ./driverlib/pwm.o
                0x000088c0                PWMOutputFaultLevel
 .text.PWMOutputFault
                0x00008908       0x48 ./driverlib/pwm.o
                0x00008908                PWMOutputFault
 .text._PWMGenIntNumberGet
                0x00008950      0x154 ./driverlib/pwm.o
 .text.PWMGenIntRegister
                0x00008aa4       0x2c ./driverlib/pwm.o
                0x00008aa4                PWMGenIntRegister
 .text.PWMGenIntUnregister
                0x00008ad0       0x28 ./driverlib/pwm.o
                0x00008ad0                PWMGenIntUnregister
 .text._PWMFaultIntNumberGet
                0x00008af8       0x68 ./driverlib/pwm.o
 .text.PWMFaultIntRegister
                0x00008b60       0x28 ./driverlib/pwm.o
                0x00008b60                PWMFaultIntRegister
 .text.PWMFaultIntUnregister
                0x00008b88       0x24 ./driverlib/pwm.o
                0x00008b88                PWMFaultIntUnregister
 .text.PWMGenIntTrigEnable
                0x00008bac       0x30 ./driverlib/pwm.o
                0x00008bac                PWMGenIntTrigEnable
 .text.PWMGenIntTrigDisable
                0x00008bdc       0x34 ./driverlib/pwm.o
                0x00008bdc                PWMGenIntTrigDisable
 .text.PWMGenIntStatus
                0x00008c10       0x38 ./driverlib/pwm.o
                0x00008c10                PWMGenIntStatus
 .text.PWMGenIntClear
                0x00008c48       0x24 ./driverlib/pwm.o
                0x00008c48                PWMGenIntClear
 .text.PWMIntEnable
                0x00008c6c       0x28 ./driverlib/pwm.o
                0x00008c6c                PWMIntEnable
 .text.PWMIntDisable
                0x00008c94       0x28 ./driverlib/pwm.o
                0x00008c94                PWMIntDisable
 .text.PWMFaultIntClear
                0x00008cbc       0x20 ./driverlib/pwm.o
                0x00008cbc                PWMFaultIntClear
 .text.PWMIntStatus
                0x00008cdc       0x2c ./driverlib/pwm.o
                0x00008cdc                PWMIntStatus
 .text.PWMFaultIntClearExt
                0x00008d08       0x20 ./driverlib/pwm.o
                0x00008d08                PWMFaultIntClearExt
 .text.PWMGenFaultConfigure
                0x00008d28       0x40 ./driverlib/pwm.o
                0x00008d28                PWMGenFaultConfigure
 .text.PWMGenFaultTriggerSet
                0x00008d68       0x3c ./driverlib/pwm.o
                0x00008d68                PWMGenFaultTriggerSet
 .text.PWMGenFaultTriggerGet
                0x00008da4       0x34 ./driverlib/pwm.o
                0x00008da4                PWMGenFaultTriggerGet
 .text.PWMGenFaultStatus
                0x00008dd8       0x48 ./driverlib/pwm.o
                0x00008dd8                PWMGenFaultStatus
 .text.PWMGenFaultClear
                0x00008e20       0x50 ./driverlib/pwm.o
                0x00008e20                PWMGenFaultClear
 .text.PWMClockSet
                0x00008e70       0x34 ./driverlib/pwm.o
                0x00008e70                PWMClockSet
 .text.PWMClockGet
                0x00008ea4       0x38 ./driverlib/pwm.o
                0x00008ea4                PWMClockGet
 .text.PWMOutputUpdateMode
                0x00008edc       0x84 ./driverlib/pwm.o
                0x00008edc                PWMOutputUpdateMode
 .text.QEIEnable
                0x00008f60       0x20 ./driverlib/qei.o
                0x00008f60                QEIEnable
 .text.QEIDisable
                0x00008f80       0x20 ./driverlib/qei.o
                0x00008f80                QEIDisable
 .text.QEIConfigure
                0x00008fa0       0x30 ./driverlib/qei.o
                0x00008fa0                QEIConfigure
 .text.QEIPositionGet
                0x00008fd0       0x1c ./driverlib/qei.o
                0x00008fd0                QEIPositionGet
 .text.QEIPositionSet
                0x00008fec       0x20 ./driverlib/qei.o
                0x00008fec                QEIPositionSet
 .text.QEIDirectionGet
                0x0000900c       0x2c ./driverlib/qei.o
                0x0000900c                QEIDirectionGet
 .text.QEIErrorGet
                0x00009038       0x28 ./driverlib/qei.o
                0x00009038                QEIErrorGet
 .text.QEIFilterEnable
                0x00009060       0x20 ./driverlib/qei.o
                0x00009060                QEIFilterEnable
 .text.QEIFilterDisable
                0x00009080       0x20 ./driverlib/qei.o
                0x00009080                QEIFilterDisable
 .text.QEIFilterConfigure
                0x000090a0       0x24 ./driverlib/qei.o
                0x000090a0                QEIFilterConfigure
 .text.QEIVelocityEnable
                0x000090c4       0x20 ./driverlib/qei.o
                0x000090c4                QEIVelocityEnable
 .text.QEIVelocityDisable
                0x000090e4       0x20 ./driverlib/qei.o
                0x000090e4                QEIVelocityDisable
 .text.QEIVelocityConfigure
                0x00009104       0x34 ./driverlib/qei.o
                0x00009104                QEIVelocityConfigure
 .text.QEIVelocityGet
                0x00009138       0x1c ./driverlib/qei.o
                0x00009138                QEIVelocityGet
 .text._QEIIntNumberGet
                0x00009154       0x74 ./driverlib/qei.o
 .text.QEIIntRegister
                0x000091c8       0x28 ./driverlib/qei.o
                0x000091c8                QEIIntRegister
 .text.QEIIntUnregister
                0x000091f0       0x24 ./driverlib/qei.o
                0x000091f0                QEIIntUnregister
 .text.QEIIntEnable
                0x00009214       0x28 ./driverlib/qei.o
                0x00009214                QEIIntEnable
 .text.QEIIntDisable
                0x0000923c       0x28 ./driverlib/qei.o
                0x0000923c                QEIIntDisable
 .text.QEIIntStatus
                0x00009264       0x2c ./driverlib/qei.o
                0x00009264                QEIIntStatus
 .text.QEIIntClear
                0x00009290       0x20 ./driverlib/qei.o
                0x00009290                QEIIntClear
 .text.SHAMD5Reset
                0x000092b0       0x50 ./driverlib/shamd5.o
                0x000092b0                SHAMD5Reset
 .text.SHAMD5DMAEnable
                0x00009300       0x28 ./driverlib/shamd5.o
                0x00009300                SHAMD5DMAEnable
 .text.SHAMD5DMADisable
                0x00009328       0x28 ./driverlib/shamd5.o
                0x00009328                SHAMD5DMADisable
 .text.SHAMD5IntStatus
                0x00009350       0x90 ./driverlib/shamd5.o
                0x00009350                SHAMD5IntStatus
 .text.SHAMD5IntEnable
                0x000093e0       0x6c ./driverlib/shamd5.o
                0x000093e0                SHAMD5IntEnable
 .text.SHAMD5IntDisable
                0x0000944c       0x7c ./driverlib/shamd5.o
                0x0000944c                SHAMD5IntDisable
 .text.SHAMD5IntClear
                0x000094c8       0x34 ./driverlib/shamd5.o
                0x000094c8                SHAMD5IntClear
 .text.SHAMD5IntRegister
                0x000094fc       0x20 ./driverlib/shamd5.o
                0x000094fc                SHAMD5IntRegister
 .text.SHAMD5IntUnregister
                0x0000951c       0x1c ./driverlib/shamd5.o
                0x0000951c                SHAMD5IntUnregister
 .text.SHAMD5HashLengthSet
                0x00009538       0x20 ./driverlib/shamd5.o
                0x00009538                SHAMD5HashLengthSet
 .text.SHAMD5ConfigSet
                0x00009558       0x20 ./driverlib/shamd5.o
                0x00009558                SHAMD5ConfigSet
 .text.SHAMD5DataWriteNonBlocking
                0x00009578       0x54 ./driverlib/shamd5.o
                0x00009578                SHAMD5DataWriteNonBlocking
 .text.SHAMD5DataWrite
                0x000095cc       0x4c ./driverlib/shamd5.o
                0x000095cc                SHAMD5DataWrite
 .text.SHAMD5ResultRead
                0x00009618       0x88 ./driverlib/shamd5.o
                0x00009618                SHAMD5ResultRead
 .text._SHAMD5DataWriteMultiple
                0x000096a0       0x84 ./driverlib/shamd5.o
 .text.SHAMD5DataProcess
                0x00009724       0x54 ./driverlib/shamd5.o
                0x00009724                SHAMD5DataProcess
 .text.SHAMD5HMACProcess
                0x00009778       0x54 ./driverlib/shamd5.o
                0x00009778                SHAMD5HMACProcess
 .text.SHAMD5HMACPPKeyGenerate
                0x000097cc       0x9c ./driverlib/shamd5.o
                0x000097cc                SHAMD5HMACPPKeyGenerate
 .text.SHAMD5HMACKeySet
                0x00009868       0x4c ./driverlib/shamd5.o
                0x00009868                SHAMD5HMACKeySet
 .text.SHAMD5HMACPPKeySet
                0x000098b4       0x54 ./driverlib/shamd5.o
                0x000098b4                SHAMD5HMACPPKeySet
 .text._SSIIntNumberGet
                0x00009908       0x78 ./driverlib/ssi.o
 .text.SSIConfigSetExpClk
                0x00009980       0x8c ./driverlib/ssi.o
                0x00009980                SSIConfigSetExpClk
 .text.SSIEnable
                0x00009a0c       0x24 ./driverlib/ssi.o
                0x00009a0c                SSIEnable
 .text.SSIDisable
                0x00009a30       0x24 ./driverlib/ssi.o
                0x00009a30                SSIDisable
 .text.SSIIntRegister
                0x00009a54       0x28 ./driverlib/ssi.o
                0x00009a54                SSIIntRegister
 .text.SSIIntUnregister
                0x00009a7c       0x24 ./driverlib/ssi.o
                0x00009a7c                SSIIntUnregister
 .text.SSIIntEnable
                0x00009aa0       0x28 ./driverlib/ssi.o
                0x00009aa0                SSIIntEnable
 .text.SSIIntDisable
                0x00009ac8       0x28 ./driverlib/ssi.o
                0x00009ac8                SSIIntDisable
 .text.SSIIntStatus
                0x00009af0       0x2c ./driverlib/ssi.o
                0x00009af0                SSIIntStatus
 .text.SSIIntClear
                0x00009b1c       0x20 ./driverlib/ssi.o
                0x00009b1c                SSIIntClear
 .text.SSIDataPut
                0x00009b3c       0x30 ./driverlib/ssi.o
                0x00009b3c                SSIDataPut
 .text.SSIDataPutNonBlocking
                0x00009b6c       0x34 ./driverlib/ssi.o
                0x00009b6c                SSIDataPutNonBlocking
 .text.SSIDataGet
                0x00009ba0       0x30 ./driverlib/ssi.o
                0x00009ba0                SSIDataGet
 .text.SSIDataGetNonBlocking
                0x00009bd0       0x34 ./driverlib/ssi.o
                0x00009bd0                SSIDataGetNonBlocking
 .text.SSIDMAEnable
                0x00009c04       0x28 ./driverlib/ssi.o
                0x00009c04                SSIDMAEnable
 .text.SSIDMADisable
                0x00009c2c       0x28 ./driverlib/ssi.o
                0x00009c2c                SSIDMADisable
 .text.SSIBusy  0x00009c54       0x28 ./driverlib/ssi.o
                0x00009c54                SSIBusy
 .text.SSIClockSourceSet
                0x00009c7c       0x20 ./driverlib/ssi.o
                0x00009c7c                SSIClockSourceSet
 .text.SSIClockSourceGet
                0x00009c9c       0x1c ./driverlib/ssi.o
                0x00009c9c                SSIClockSourceGet
 .text.SSIAdvModeSet
                0x00009cb8       0x2c ./driverlib/ssi.o
                0x00009cb8                SSIAdvModeSet
 .text.SSIAdvDataPutFrameEnd
                0x00009ce4       0x40 ./driverlib/ssi.o
                0x00009ce4                SSIAdvDataPutFrameEnd
 .text.SSIAdvDataPutFrameEndNonBlocking
                0x00009d24       0x48 ./driverlib/ssi.o
                0x00009d24                SSIAdvDataPutFrameEndNonBlocking
 .text.SSIAdvFrameHoldEnable
                0x00009d6c       0x24 ./driverlib/ssi.o
                0x00009d6c                SSIAdvFrameHoldEnable
 .text.SSIAdvFrameHoldDisable
                0x00009d90       0x24 ./driverlib/ssi.o
                0x00009d90                SSIAdvFrameHoldDisable
 .text.Crc8CCITT
                0x00009db4      0x150 ./driverlib/sw_crc.o
                0x00009db4                Crc8CCITT
 .text.Crc16    0x00009f04      0x1c8 ./driverlib/sw_crc.o
                0x00009f04                Crc16
 .text.Crc16Array
                0x0000a0cc       0x24 ./driverlib/sw_crc.o
                0x0000a0cc                Crc16Array
 .text.Crc16Array3
                0x0000a0f0      0x150 ./driverlib/sw_crc.o
                0x0000a0f0                Crc16Array3
 .text.Crc32    0x0000a240      0x1b0 ./driverlib/sw_crc.o
                0x0000a240                Crc32
 .text._SysCtlMemTimingGet
                0x0000a3f0       0x48 ./driverlib/sysctl.o
 .text._SysCtlFrequencyGet
                0x0000a438       0xa0 ./driverlib/sysctl.o
 .text.SysCtlSRAMSizeGet
                0x0000a4d8       0x1c ./driverlib/sysctl.o
                0x0000a4d8                SysCtlSRAMSizeGet
 .text.SysCtlFlashSizeGet
                0x0000a4f4       0x48 ./driverlib/sysctl.o
                0x0000a4f4                SysCtlFlashSizeGet
 .text.SysCtlFlashSectorSizeGet
                0x0000a53c       0x44 ./driverlib/sysctl.o
                0x0000a53c                SysCtlFlashSectorSizeGet
 .text.SysCtlPeripheralPresent
                0x0000a580       0x54 ./driverlib/sysctl.o
                0x0000a580                SysCtlPeripheralPresent
 .text.SysCtlPeripheralReady
                0x0000a5d4       0x54 ./driverlib/sysctl.o
                0x0000a5d4                SysCtlPeripheralReady
 .text.SysCtlPeripheralPowerOn
                0x0000a628       0x4c ./driverlib/sysctl.o
                0x0000a628                SysCtlPeripheralPowerOn
 .text.SysCtlPeripheralPowerOff
                0x0000a674       0x4c ./driverlib/sysctl.o
                0x0000a674                SysCtlPeripheralPowerOff
 .text.SysCtlPeripheralReset
                0x0000a6c0       0x94 ./driverlib/sysctl.o
                0x0000a6c0                SysCtlPeripheralReset
 .text.SysCtlPeripheralEnable
                0x0000a754       0x4c ./driverlib/sysctl.o
                0x0000a754                SysCtlPeripheralEnable
 .text.SysCtlPeripheralDisable
                0x0000a7a0       0x4c ./driverlib/sysctl.o
                0x0000a7a0                SysCtlPeripheralDisable
 .text.SysCtlPeripheralSleepEnable
                0x0000a7ec       0x4c ./driverlib/sysctl.o
                0x0000a7ec                SysCtlPeripheralSleepEnable
 .text.SysCtlPeripheralSleepDisable
                0x0000a838       0x4c ./driverlib/sysctl.o
                0x0000a838                SysCtlPeripheralSleepDisable
 .text.SysCtlPeripheralDeepSleepEnable
                0x0000a884       0x4c ./driverlib/sysctl.o
                0x0000a884                SysCtlPeripheralDeepSleepEnable
 .text.SysCtlPeripheralDeepSleepDisable
                0x0000a8d0       0x4c ./driverlib/sysctl.o
                0x0000a8d0                SysCtlPeripheralDeepSleepDisable
 .text.SysCtlPeripheralClockGating
                0x0000a91c       0x78 ./driverlib/sysctl.o
                0x0000a91c                SysCtlPeripheralClockGating
 .text.SysCtlIntRegister
                0x0000a994       0x1c ./driverlib/sysctl.o
                0x0000a994                SysCtlIntRegister
 .text.SysCtlIntUnregister
                0x0000a9b0       0x14 ./driverlib/sysctl.o
                0x0000a9b0                SysCtlIntUnregister
 .text.SysCtlIntEnable
                0x0000a9c4       0x24 ./driverlib/sysctl.o
                0x0000a9c4                SysCtlIntEnable
 .text.SysCtlIntDisable
                0x0000a9e8       0x24 ./driverlib/sysctl.o
                0x0000a9e8                SysCtlIntDisable
 .text.SysCtlIntClear
                0x0000aa0c       0x1c ./driverlib/sysctl.o
                0x0000aa0c                SysCtlIntClear
 .text.SysCtlIntStatus
                0x0000aa28       0x30 ./driverlib/sysctl.o
                0x0000aa28                SysCtlIntStatus
 .text.SysCtlLDOSleepSet
                0x0000aa58       0x1c ./driverlib/sysctl.o
                0x0000aa58                SysCtlLDOSleepSet
 .text.SysCtlLDOSleepGet
                0x0000aa74       0x18 ./driverlib/sysctl.o
                0x0000aa74                SysCtlLDOSleepGet
 .text.SysCtlLDODeepSleepSet
                0x0000aa8c       0x1c ./driverlib/sysctl.o
                0x0000aa8c                SysCtlLDODeepSleepSet
 .text.SysCtlLDODeepSleepGet
                0x0000aaa8       0x18 ./driverlib/sysctl.o
                0x0000aaa8                SysCtlLDODeepSleepGet
 .text.SysCtlSleepPowerSet
                0x0000aac0       0x1c ./driverlib/sysctl.o
                0x0000aac0                SysCtlSleepPowerSet
 .text.SysCtlDeepSleepPowerSet
                0x0000aadc       0x1c ./driverlib/sysctl.o
                0x0000aadc                SysCtlDeepSleepPowerSet
 .text.SysCtlReset
                0x0000aaf8       0x14 ./driverlib/sysctl.o
                0x0000aaf8                SysCtlReset
 .text.SysCtlSleep
                0x0000ab0c        0xc ./driverlib/sysctl.o
                0x0000ab0c                SysCtlSleep
 .text.SysCtlDeepSleep
                0x0000ab18       0x28 ./driverlib/sysctl.o
                0x0000ab18                SysCtlDeepSleep
 .text.SysCtlResetCauseGet
                0x0000ab40       0x18 ./driverlib/sysctl.o
                0x0000ab40                SysCtlResetCauseGet
 .text.SysCtlResetCauseClear
                0x0000ab58       0x24 ./driverlib/sysctl.o
                0x0000ab58                SysCtlResetCauseClear
 .text.SysCtlDelay
                0x0000ab7c        0x8 ./driverlib/sysctl.o
                0x0000ab7c                SysCtlDelay
 .text.SysCtlMOSCConfigSet
                0x0000ab84       0x1c ./driverlib/sysctl.o
                0x0000ab84                SysCtlMOSCConfigSet
 .text.SysCtlPIOSCCalibrate
                0x0000aba0       0x74 ./driverlib/sysctl.o
                0x0000aba0                SysCtlPIOSCCalibrate
 .text.SysCtlResetBehaviorSet
                0x0000ac14       0x1c ./driverlib/sysctl.o
                0x0000ac14                SysCtlResetBehaviorSet
 .text.SysCtlResetBehaviorGet
                0x0000ac30       0x18 ./driverlib/sysctl.o
                0x0000ac30                SysCtlResetBehaviorGet
 .text.SysCtlClockFreqSet
                0x0000ac48      0x358 ./driverlib/sysctl.o
                0x0000ac48                SysCtlClockFreqSet
 .text.SysCtlClockSet
                0x0000afa0      0x1f4 ./driverlib/sysctl.o
                0x0000afa0                SysCtlClockSet
 .text.SysCtlClockGet
                0x0000b194      0x204 ./driverlib/sysctl.o
                0x0000b194                SysCtlClockGet
 .text.SysCtlDeepSleepClockSet
                0x0000b398       0x1c ./driverlib/sysctl.o
                0x0000b398                SysCtlDeepSleepClockSet
 .text.SysCtlDeepSleepClockConfigSet
                0x0000b3b4       0xa8 ./driverlib/sysctl.o
                0x0000b3b4                SysCtlDeepSleepClockConfigSet
 .text.SysCtlPWMClockSet
                0x0000b45c       0x28 ./driverlib/sysctl.o
                0x0000b45c                SysCtlPWMClockSet
 .text.SysCtlPWMClockGet
                0x0000b484       0x2c ./driverlib/sysctl.o
                0x0000b484                SysCtlPWMClockGet
 .text.SysCtlGPIOAHBEnable
                0x0000b4b0       0x2c ./driverlib/sysctl.o
                0x0000b4b0                SysCtlGPIOAHBEnable
 .text.SysCtlGPIOAHBDisable
                0x0000b4dc       0x30 ./driverlib/sysctl.o
                0x0000b4dc                SysCtlGPIOAHBDisable
 .text.SysCtlUSBPLLEnable
                0x0000b50c       0x1c ./driverlib/sysctl.o
                0x0000b50c                SysCtlUSBPLLEnable
 .text.SysCtlUSBPLLDisable
                0x0000b528       0x1c ./driverlib/sysctl.o
                0x0000b528                SysCtlUSBPLLDisable
 .text.SysCtlVoltageEventConfig
                0x0000b544       0x1c ./driverlib/sysctl.o
                0x0000b544                SysCtlVoltageEventConfig
 .text.SysCtlVoltageEventStatus
                0x0000b560       0x18 ./driverlib/sysctl.o
                0x0000b560                SysCtlVoltageEventStatus
 .text.SysCtlVoltageEventClear
                0x0000b578       0x24 ./driverlib/sysctl.o
                0x0000b578                SysCtlVoltageEventClear
 .text.SysCtlNMIStatus
                0x0000b59c       0x18 ./driverlib/sysctl.o
                0x0000b59c                SysCtlNMIStatus
 .text.SysCtlNMIClear
                0x0000b5b4       0x24 ./driverlib/sysctl.o
                0x0000b5b4                SysCtlNMIClear
 .text.SysCtlClockOutConfig
                0x0000b5d8       0x28 ./driverlib/sysctl.o
                0x0000b5d8                SysCtlClockOutConfig
 .text.SysCtlAltClkConfig
                0x0000b600       0x1c ./driverlib/sysctl.o
                0x0000b600                SysCtlAltClkConfig
 .text._SysExcIntNumberGet
                0x0000b61c       0x50 ./driverlib/sysexc.o
 .text.SysExcIntRegister
                0x0000b66c       0x24 ./driverlib/sysexc.o
                0x0000b66c                SysExcIntRegister
 .text.SysExcIntUnregister
                0x0000b690       0x20 ./driverlib/sysexc.o
                0x0000b690                SysExcIntUnregister
 .text.SysExcIntEnable
                0x0000b6b0       0x24 ./driverlib/sysexc.o
                0x0000b6b0                SysExcIntEnable
 .text.SysExcIntDisable
                0x0000b6d4       0x24 ./driverlib/sysexc.o
                0x0000b6d4                SysExcIntDisable
 .text.SysExcIntStatus
                0x0000b6f8       0x30 ./driverlib/sysexc.o
                0x0000b6f8                SysExcIntStatus
 .text.SysExcIntClear
                0x0000b728       0x1c ./driverlib/sysexc.o
                0x0000b728                SysExcIntClear
 .text.SysTickEnable
                0x0000b744       0x1c ./driverlib/systick.o
                0x0000b744                SysTickEnable
 .text.SysTickDisable
                0x0000b760       0x1c ./driverlib/systick.o
                0x0000b760                SysTickDisable
 .text.SysTickIntRegister
                0x0000b77c       0x28 ./driverlib/systick.o
                0x0000b77c                SysTickIntRegister
 .text.SysTickIntUnregister
                0x0000b7a4       0x1c ./driverlib/systick.o
                0x0000b7a4                SysTickIntUnregister
 .text.SysTickIntEnable
                0x0000b7c0       0x1c ./driverlib/systick.o
                0x0000b7c0                SysTickIntEnable
 .text.SysTickIntDisable
                0x0000b7dc       0x1c ./driverlib/systick.o
                0x0000b7dc                SysTickIntDisable
 .text.SysTickPeriodSet
                0x0000b7f8       0x20 ./driverlib/systick.o
                0x0000b7f8                SysTickPeriodSet
 .text.SysTickPeriodGet
                0x0000b818       0x18 ./driverlib/systick.o
                0x0000b818                SysTickPeriodGet
 .text.SysTickValueGet
                0x0000b830       0x18 ./driverlib/systick.o
                0x0000b830                SysTickValueGet
 .text._TimerIntNumberGet
                0x0000b848       0x8c ./driverlib/timer.o
 .text.TimerEnable
                0x0000b8d4       0x2c ./driverlib/timer.o
                0x0000b8d4                TimerEnable
 .text.TimerDisable
                0x0000b900       0x30 ./driverlib/timer.o
                0x0000b900                TimerDisable
 .text.TimerConfigure
                0x0000b930       0xa8 ./driverlib/timer.o
                0x0000b930                TimerConfigure
 .text.TimerControlLevel
                0x0000b9d8       0x48 ./driverlib/timer.o
                0x0000b9d8                TimerControlLevel
 .text.TimerControlTrigger
                0x0000ba20       0x98 ./driverlib/timer.o
                0x0000ba20                TimerControlTrigger
 .text.TimerControlEvent
                0x0000bab8       0x3c ./driverlib/timer.o
                0x0000bab8                TimerControlEvent
 .text.TimerControlStall
                0x0000baf4       0x48 ./driverlib/timer.o
                0x0000baf4                TimerControlStall
 .text.TimerControlWaitOnTrigger
                0x0000bb3c       0x84 ./driverlib/timer.o
                0x0000bb3c                TimerControlWaitOnTrigger
 .text.TimerRTCEnable
                0x0000bbc0       0x24 ./driverlib/timer.o
                0x0000bbc0                TimerRTCEnable
 .text.TimerRTCDisable
                0x0000bbe4       0x24 ./driverlib/timer.o
                0x0000bbe4                TimerRTCDisable
 .text.TimerClockSourceSet
                0x0000bc08       0x20 ./driverlib/timer.o
                0x0000bc08                TimerClockSourceSet
 .text.TimerClockSourceGet
                0x0000bc28       0x1c ./driverlib/timer.o
                0x0000bc28                TimerClockSourceGet
 .text.TimerPrescaleSet
                0x0000bc44       0x3c ./driverlib/timer.o
                0x0000bc44                TimerPrescaleSet
 .text.TimerPrescaleGet
                0x0000bc80       0x2c ./driverlib/timer.o
                0x0000bc80                TimerPrescaleGet
 .text.TimerPrescaleMatchSet
                0x0000bcac       0x3c ./driverlib/timer.o
                0x0000bcac                TimerPrescaleMatchSet
 .text.TimerPrescaleMatchGet
                0x0000bce8       0x2c ./driverlib/timer.o
                0x0000bce8                TimerPrescaleMatchGet
 .text.TimerLoadSet
                0x0000bd14       0x3c ./driverlib/timer.o
                0x0000bd14                TimerLoadSet
 .text.TimerLoadGet
                0x0000bd50       0x2c ./driverlib/timer.o
                0x0000bd50                TimerLoadGet
 .text.TimerLoadSet64
                0x0000bd7c       0x30 ./driverlib/timer.o
                0x0000bd7c                TimerLoadSet64
 .text.TimerLoadGet64
                0x0000bdac       0x54 ./driverlib/timer.o
                0x0000bdac                TimerLoadGet64
 .text.TimerValueGet
                0x0000be00       0x2c ./driverlib/timer.o
                0x0000be00                TimerValueGet
 .text.TimerValueGet64
                0x0000be2c       0x54 ./driverlib/timer.o
                0x0000be2c                TimerValueGet64
 .text.TimerMatchSet
                0x0000be80       0x3c ./driverlib/timer.o
                0x0000be80                TimerMatchSet
 .text.TimerMatchGet
                0x0000bebc       0x2c ./driverlib/timer.o
                0x0000bebc                TimerMatchGet
 .text.TimerMatchSet64
                0x0000bee8       0x30 ./driverlib/timer.o
                0x0000bee8                TimerMatchSet64
 .text.TimerMatchGet64
                0x0000bf18       0x54 ./driverlib/timer.o
                0x0000bf18                TimerMatchGet64
 .text.TimerIntRegister
                0x0000bf6c       0x2c ./driverlib/timer.o
                0x0000bf6c                TimerIntRegister
 .text.TimerIntUnregister
                0x0000bf98       0x28 ./driverlib/timer.o
                0x0000bf98                TimerIntUnregister
 .text.TimerIntEnable
                0x0000bfc0       0x28 ./driverlib/timer.o
                0x0000bfc0                TimerIntEnable
 .text.TimerIntDisable
                0x0000bfe8       0x28 ./driverlib/timer.o
                0x0000bfe8                TimerIntDisable
 .text.TimerIntStatus
                0x0000c010       0x2c ./driverlib/timer.o
                0x0000c010                TimerIntStatus
 .text.TimerIntClear
                0x0000c03c       0x20 ./driverlib/timer.o
                0x0000c03c                TimerIntClear
 .text.TimerSynchronize
                0x0000c05c       0x20 ./driverlib/timer.o
                0x0000c05c                TimerSynchronize
 .text.TimerADCEventSet
                0x0000c07c       0x20 ./driverlib/timer.o
                0x0000c07c                TimerADCEventSet
 .text.TimerADCEventGet
                0x0000c09c       0x1c ./driverlib/timer.o
                0x0000c09c                TimerADCEventGet
 .text.TimerDMAEventSet
                0x0000c0b8       0x20 ./driverlib/timer.o
                0x0000c0b8                TimerDMAEventSet
 .text.TimerDMAEventGet
                0x0000c0d8       0x1c ./driverlib/timer.o
                0x0000c0d8                TimerDMAEventGet
 .text.TimerUpdateMode
                0x0000c0f4       0x68 ./driverlib/timer.o
                0x0000c0f4                TimerUpdateMode
 .text._UARTIntNumberGet
                0x0000c15c       0x78 ./driverlib/uart.o
 .text.UARTParityModeSet
                0x0000c1d4       0x2c ./driverlib/uart.o
                0x0000c1d4                UARTParityModeSet
 .text.UARTParityModeGet
                0x0000c200       0x20 ./driverlib/uart.o
                0x0000c200                UARTParityModeGet
 .text.UARTFIFOLevelSet
                0x0000c220       0x24 ./driverlib/uart.o
                0x0000c220                UARTFIFOLevelSet
 .text.UARTFIFOLevelGet
                0x0000c244       0x34 ./driverlib/uart.o
                0x0000c244                UARTFIFOLevelGet
 .text.UARTConfigSetExpClk
                0x0000c278       0x94 ./driverlib/uart.o
                0x0000c278                UARTConfigSetExpClk
 .text.UARTConfigGetExpClk
                0x0000c30c       0x64 ./driverlib/uart.o
                0x0000c30c                UARTConfigGetExpClk
 .text.UARTEnable
                0x0000c370       0x3c ./driverlib/uart.o
                0x0000c370                UARTEnable
 .text.UARTDisable
                0x0000c3ac       0x4c ./driverlib/uart.o
                0x0000c3ac                UARTDisable
 .text.UARTFIFOEnable
                0x0000c3f8       0x24 ./driverlib/uart.o
                0x0000c3f8                UARTFIFOEnable
 .text.UARTFIFODisable
                0x0000c41c       0x24 ./driverlib/uart.o
                0x0000c41c                UARTFIFODisable
 .text.UARTEnableSIR
                0x0000c440       0x44 ./driverlib/uart.o
                0x0000c440                UARTEnableSIR
 .text.UARTDisableSIR
                0x0000c484       0x24 ./driverlib/uart.o
                0x0000c484                UARTDisableSIR
 .text.UARTSmartCardEnable
                0x0000c4a8       0x48 ./driverlib/uart.o
                0x0000c4a8                UARTSmartCardEnable
 .text.UARTSmartCardDisable
                0x0000c4f0       0x24 ./driverlib/uart.o
                0x0000c4f0                UARTSmartCardDisable
 .text.UARTModemControlSet
                0x0000c514       0x34 ./driverlib/uart.o
                0x0000c514                UARTModemControlSet
 .text.UARTModemControlClear
                0x0000c548       0x34 ./driverlib/uart.o
                0x0000c548                UARTModemControlClear
 .text.UARTModemControlGet
                0x0000c57c       0x20 ./driverlib/uart.o
                0x0000c57c                UARTModemControlGet
 .text.UARTModemStatusGet
                0x0000c59c       0x20 ./driverlib/uart.o
                0x0000c59c                UARTModemStatusGet
 .text.UARTFlowControlSet
                0x0000c5bc       0x2c ./driverlib/uart.o
                0x0000c5bc                UARTFlowControlSet
 .text.UARTFlowControlGet
                0x0000c5e8       0x20 ./driverlib/uart.o
                0x0000c5e8                UARTFlowControlGet
 .text.UARTTxIntModeSet
                0x0000c608       0x2c ./driverlib/uart.o
                0x0000c608                UARTTxIntModeSet
 .text.UARTTxIntModeGet
                0x0000c634       0x20 ./driverlib/uart.o
                0x0000c634                UARTTxIntModeGet
 .text.UARTCharsAvail
                0x0000c654       0x28 ./driverlib/uart.o
                0x0000c654                UARTCharsAvail
 .text.UARTSpaceAvail
                0x0000c67c       0x28 ./driverlib/uart.o
                0x0000c67c                UARTSpaceAvail
 .text.UARTCharGetNonBlocking
                0x0000c6a4       0x2c ./driverlib/uart.o
                0x0000c6a4                UARTCharGetNonBlocking
 .text.UARTCharGet
                0x0000c6d0       0x28 ./driverlib/uart.o
                0x0000c6d0                UARTCharGet
 .text.UARTCharPutNonBlocking
                0x0000c6f8       0x34 ./driverlib/uart.o
                0x0000c6f8                UARTCharPutNonBlocking
 .text.UARTCharPut
                0x0000c72c       0x2c ./driverlib/uart.o
                0x0000c72c                UARTCharPut
 .text.UARTBreakCtl
                0x0000c758       0x3c ./driverlib/uart.o
                0x0000c758                UARTBreakCtl
 .text.UARTBusy
                0x0000c794       0x28 ./driverlib/uart.o
                0x0000c794                UARTBusy
 .text.UARTIntRegister
                0x0000c7bc       0x28 ./driverlib/uart.o
                0x0000c7bc                UARTIntRegister
 .text.UARTIntUnregister
                0x0000c7e4       0x24 ./driverlib/uart.o
                0x0000c7e4                UARTIntUnregister
 .text.UARTIntEnable
                0x0000c808       0x28 ./driverlib/uart.o
                0x0000c808                UARTIntEnable
 .text.UARTIntDisable
                0x0000c830       0x28 ./driverlib/uart.o
                0x0000c830                UARTIntDisable
 .text.UARTIntStatus
                0x0000c858       0x2c ./driverlib/uart.o
                0x0000c858                UARTIntStatus
 .text.UARTIntClear
                0x0000c884       0x20 ./driverlib/uart.o
                0x0000c884                UARTIntClear
 .text.UARTDMAEnable
                0x0000c8a4       0x28 ./driverlib/uart.o
                0x0000c8a4                UARTDMAEnable
 .text.UARTDMADisable
                0x0000c8cc       0x28 ./driverlib/uart.o
                0x0000c8cc                UARTDMADisable
 .text.UARTRxErrorGet
                0x0000c8f4       0x20 ./driverlib/uart.o
                0x0000c8f4                UARTRxErrorGet
 .text.UARTRxErrorClear
                0x0000c914       0x1c ./driverlib/uart.o
                0x0000c914                UARTRxErrorClear
 .text.UARTClockSourceSet
                0x0000c930       0x20 ./driverlib/uart.o
                0x0000c930                UARTClockSourceSet
 .text.UARTClockSourceGet
                0x0000c950       0x1c ./driverlib/uart.o
                0x0000c950                UARTClockSourceGet
 .text.UART9BitEnable
                0x0000c96c       0x24 ./driverlib/uart.o
                0x0000c96c                UART9BitEnable
 .text.UART9BitDisable
                0x0000c990       0x24 ./driverlib/uart.o
                0x0000c990                UART9BitDisable
 .text.UART9BitAddrSet
                0x0000c9b4       0x30 ./driverlib/uart.o
                0x0000c9b4                UART9BitAddrSet
 .text.UART9BitAddrSend
                0x0000c9e4       0x60 ./driverlib/uart.o
                0x0000c9e4                UART9BitAddrSend
 .text.UARTLoopbackEnable
                0x0000ca44       0x24 ./driverlib/uart.o
                0x0000ca44                UARTLoopbackEnable
 .text.uDMAEnable
                0x0000ca68       0x18 ./driverlib/udma.o
                0x0000ca68                uDMAEnable
 .text.uDMADisable
                0x0000ca80       0x18 ./driverlib/udma.o
                0x0000ca80                uDMADisable
 .text.uDMAErrorStatusGet
                0x0000ca98       0x18 ./driverlib/udma.o
                0x0000ca98                uDMAErrorStatusGet
 .text.uDMAErrorStatusClear
                0x0000cab0       0x18 ./driverlib/udma.o
                0x0000cab0                uDMAErrorStatusClear
 .text.uDMAChannelEnable
                0x0000cac8       0x28 ./driverlib/udma.o
                0x0000cac8                uDMAChannelEnable
 .text.uDMAChannelDisable
                0x0000caf0       0x28 ./driverlib/udma.o
                0x0000caf0                uDMAChannelDisable
 .text.uDMAChannelIsEnabled
                0x0000cb18       0x34 ./driverlib/udma.o
                0x0000cb18                uDMAChannelIsEnabled
 .text.uDMAControlBaseSet
                0x0000cb4c       0x1c ./driverlib/udma.o
                0x0000cb4c                uDMAControlBaseSet
 .text.uDMAControlBaseGet
                0x0000cb68       0x18 ./driverlib/udma.o
                0x0000cb68                uDMAControlBaseGet
 .text.uDMAControlAlternateBaseGet
                0x0000cb80       0x18 ./driverlib/udma.o
                0x0000cb80                uDMAControlAlternateBaseGet
 .text.uDMAChannelRequest
                0x0000cb98       0x28 ./driverlib/udma.o
                0x0000cb98                uDMAChannelRequest
 .text.uDMAChannelAttributeEnable
                0x0000cbc0       0x84 ./driverlib/udma.o
                0x0000cbc0                uDMAChannelAttributeEnable
 .text.uDMAChannelAttributeDisable
                0x0000cc44       0x84 ./driverlib/udma.o
                0x0000cc44                uDMAChannelAttributeDisable
 .text.uDMAChannelAttributeGet
                0x0000ccc8       0x9c ./driverlib/udma.o
                0x0000ccc8                uDMAChannelAttributeGet
 .text.uDMAChannelControlSet
                0x0000cd64       0x48 ./driverlib/udma.o
                0x0000cd64                uDMAChannelControlSet
 .text.uDMAChannelTransferSet
                0x0000cdac      0x104 ./driverlib/udma.o
                0x0000cdac                uDMAChannelTransferSet
 .text.uDMAChannelScatterGatherSet
                0x0000ceb0       0x98 ./driverlib/udma.o
                0x0000ceb0                uDMAChannelScatterGatherSet
 .text.uDMAChannelSizeGet
                0x0000cf48       0x48 ./driverlib/udma.o
                0x0000cf48                uDMAChannelSizeGet
 .text.uDMAChannelModeGet
                0x0000cf90       0x54 ./driverlib/udma.o
                0x0000cf90                uDMAChannelModeGet
 .text.uDMAIntRegister
                0x0000cfe4       0x20 ./driverlib/udma.o
                0x0000cfe4                uDMAIntRegister
 .text.uDMAIntUnregister
                0x0000d004       0x1c ./driverlib/udma.o
                0x0000d004                uDMAIntUnregister
 .text.uDMAIntStatus
                0x0000d020       0x18 ./driverlib/udma.o
                0x0000d020                uDMAIntStatus
 .text.uDMAIntClear
                0x0000d038       0x1c ./driverlib/udma.o
                0x0000d038                uDMAIntClear
 .text.uDMAChannelAssign
                0x0000d054       0x58 ./driverlib/udma.o
                0x0000d054                uDMAChannelAssign
 .text.uDMAChannelSelectSecondary
                0x0000d0ac       0x24 ./driverlib/udma.o
                0x0000d0ac                uDMAChannelSelectSecondary
 .text.uDMAChannelSelectDefault
                0x0000d0d0       0x24 ./driverlib/udma.o
                0x0000d0d0                uDMAChannelSelectDefault
 .text._USBIndexWrite
                0x0000d0f4       0x58 ./driverlib/usb.o
 .text._USBIndexRead
                0x0000d14c       0x58 ./driverlib/usb.o
 .text.USBHostSuspend
                0x0000d1a4       0x28 ./driverlib/usb.o
                0x0000d1a4                USBHostSuspend
 .text.USBHostReset
                0x0000d1cc       0x4c ./driverlib/usb.o
                0x0000d1cc                USBHostReset
 .text.USBHighSpeed
                0x0000d218       0x4c ./driverlib/usb.o
                0x0000d218                USBHighSpeed
 .text.USBHostResume
                0x0000d264       0x4c ./driverlib/usb.o
                0x0000d264                USBHostResume
 .text.USBHostSpeedGet
                0x0000d2b0       0x54 ./driverlib/usb.o
                0x0000d2b0                USBHostSpeedGet
 .text.USBDevSpeedGet
                0x0000d304       0x2c ./driverlib/usb.o
                0x0000d304                USBDevSpeedGet
 .text.USBIntDisableControl
                0x0000d330       0x64 ./driverlib/usb.o
                0x0000d330                USBIntDisableControl
 .text.USBIntEnableControl
                0x0000d394       0x60 ./driverlib/usb.o
                0x0000d394                USBIntEnableControl
 .text.USBIntStatusControl
                0x0000d3f4       0x78 ./driverlib/usb.o
                0x0000d3f4                USBIntStatusControl
 .text.USBIntDisableEndpoint
                0x0000d46c       0x54 ./driverlib/usb.o
                0x0000d46c                USBIntDisableEndpoint
 .text.USBIntEnableEndpoint
                0x0000d4c0       0x4c ./driverlib/usb.o
                0x0000d4c0                USBIntEnableEndpoint
 .text.USBIntStatusEndpoint
                0x0000d50c       0x34 ./driverlib/usb.o
                0x0000d50c                USBIntStatusEndpoint
 .text._USBIntNumberGet
                0x0000d540       0x54 ./driverlib/usb.o
 .text.USBIntRegister
                0x0000d594       0x28 ./driverlib/usb.o
                0x0000d594                USBIntRegister
 .text.USBIntUnregister
                0x0000d5bc       0x24 ./driverlib/usb.o
                0x0000d5bc                USBIntUnregister
 .text.USBEndpointStatus
                0x0000d5e0       0x40 ./driverlib/usb.o
                0x0000d5e0                USBEndpointStatus
 .text.USBHostEndpointStatusClear
                0x0000d620       0x90 ./driverlib/usb.o
                0x0000d620                USBHostEndpointStatusClear
 .text.USBDevEndpointStatusClear
                0x0000d6b0       0xe8 ./driverlib/usb.o
                0x0000d6b0                USBDevEndpointStatusClear
 .text.USBHostEndpointDataToggle
                0x0000d798       0xd8 ./driverlib/usb.o
                0x0000d798                USBHostEndpointDataToggle
 .text.USBEndpointDataToggleClear
                0x0000d870       0x68 ./driverlib/usb.o
                0x0000d870                USBEndpointDataToggleClear
 .text.USBHostEndpointPing
                0x0000d8d8       0x44 ./driverlib/usb.o
                0x0000d8d8                USBHostEndpointPing
 .text.USBDevEndpointStall
                0x0000d91c       0x88 ./driverlib/usb.o
                0x0000d91c                USBDevEndpointStall
 .text.USBDevEndpointStallClear
                0x0000d9a4       0xcc ./driverlib/usb.o
                0x0000d9a4                USBDevEndpointStallClear
 .text.USBDevConnect
                0x0000da70       0x28 ./driverlib/usb.o
                0x0000da70                USBDevConnect
 .text.USBDevDisconnect
                0x0000da98       0x28 ./driverlib/usb.o
                0x0000da98                USBDevDisconnect
 .text.USBDevAddrSet
                0x0000dac0       0x1c ./driverlib/usb.o
                0x0000dac0                USBDevAddrSet
 .text.USBDevAddrGet
                0x0000dadc       0x1c ./driverlib/usb.o
                0x0000dadc                USBDevAddrGet
 .text.USBHostEndpointConfig
                0x0000daf8      0x1f0 ./driverlib/usb.o
                0x0000daf8                USBHostEndpointConfig
 .text.USBHostEndpointSpeed
                0x0000dce8       0xdc ./driverlib/usb.o
                0x0000dce8                USBHostEndpointSpeed
 .text.USBDevEndpointConfigSet
                0x0000ddc4      0x12c ./driverlib/usb.o
                0x0000ddc4                USBDevEndpointConfigSet
 .text.USBDevEndpointConfigGet
                0x0000def0      0x144 ./driverlib/usb.o
                0x0000def0                USBDevEndpointConfigGet
 .text.USBFIFOConfigSet
                0x0000e034       0x78 ./driverlib/usb.o
                0x0000e034                USBFIFOConfigSet
 .text.USBFIFOConfigGet
                0x0000e0ac       0x7c ./driverlib/usb.o
                0x0000e0ac                USBFIFOConfigGet
 .text.USBEndpointDMAConfigSet
                0x0000e128       0xc4 ./driverlib/usb.o
                0x0000e128                USBEndpointDMAConfigSet
 .text.USBEndpointDMAEnable
                0x0000e1ec       0x68 ./driverlib/usb.o
                0x0000e1ec                USBEndpointDMAEnable
 .text.USBEndpointDMADisable
                0x0000e254       0x68 ./driverlib/usb.o
                0x0000e254                USBEndpointDMADisable
 .text.USBEndpointDataAvail
                0x0000e2bc       0x50 ./driverlib/usb.o
                0x0000e2bc                USBEndpointDataAvail
 .text.USBEndpointDataGet
                0x0000e30c       0x9c ./driverlib/usb.o
                0x0000e30c                USBEndpointDataGet
 .text.USBDevEndpointDataAck
                0x0000e3a8       0x58 ./driverlib/usb.o
                0x0000e3a8                USBDevEndpointDataAck
 .text.USBHostEndpointDataAck
                0x0000e400       0x58 ./driverlib/usb.o
                0x0000e400                USBHostEndpointDataAck
 .text.USBEndpointDataPut
                0x0000e458       0x70 ./driverlib/usb.o
                0x0000e458                USBEndpointDataPut
 .text.USBEndpointDataSend
                0x0000e4c8       0x74 ./driverlib/usb.o
                0x0000e4c8                USBEndpointDataSend
 .text.USBFIFOFlush
                0x0000e53c       0xb8 ./driverlib/usb.o
                0x0000e53c                USBFIFOFlush
 .text.USBHostRequestIN
                0x0000e5f4       0x34 ./driverlib/usb.o
                0x0000e5f4                USBHostRequestIN
 .text.USBHostRequestINClear
                0x0000e628       0x44 ./driverlib/usb.o
                0x0000e628                USBHostRequestINClear
 .text.USBHostRequestStatus
                0x0000e66c       0x1c ./driverlib/usb.o
                0x0000e66c                USBHostRequestStatus
 .text.USBHostAddrSet
                0x0000e688       0x44 ./driverlib/usb.o
                0x0000e688                USBHostAddrSet
 .text.USBHostAddrGet
                0x0000e6cc       0x40 ./driverlib/usb.o
                0x0000e6cc                USBHostAddrGet
 .text.USBHostHubAddrSet
                0x0000e70c       0x80 ./driverlib/usb.o
                0x0000e70c                USBHostHubAddrSet
 .text.USBHostHubAddrGet
                0x0000e78c       0x40 ./driverlib/usb.o
                0x0000e78c                USBHostHubAddrGet
 .text.USBHostPwrConfig
                0x0000e7cc       0x48 ./driverlib/usb.o
                0x0000e7cc                USBHostPwrConfig
 .text.USBHostPwrFaultEnable
                0x0000e814       0x2c ./driverlib/usb.o
                0x0000e814                USBHostPwrFaultEnable
 .text.USBHostPwrFaultDisable
                0x0000e840       0x2c ./driverlib/usb.o
                0x0000e840                USBHostPwrFaultDisable
 .text.USBHostPwrEnable
                0x0000e86c       0x2c ./driverlib/usb.o
                0x0000e86c                USBHostPwrEnable
 .text.USBHostPwrDisable
                0x0000e898       0x2c ./driverlib/usb.o
                0x0000e898                USBHostPwrDisable
 .text.USBFrameNumberGet
                0x0000e8c4       0x1c ./driverlib/usb.o
                0x0000e8c4                USBFrameNumberGet
 .text.USBOTGSessionRequest
                0x0000e8e0       0x4c ./driverlib/usb.o
                0x0000e8e0                USBOTGSessionRequest
 .text.USBFIFOAddrGet
                0x0000e92c       0x20 ./driverlib/usb.o
                0x0000e92c                USBFIFOAddrGet
 .text.USBModeGet
                0x0000e94c       0x20 ./driverlib/usb.o
                0x0000e94c                USBModeGet
 .text.USBEndpointDMAChannel
                0x0000e96c       0x50 ./driverlib/usb.o
                0x0000e96c                USBEndpointDMAChannel
 .text.USBHostMode
                0x0000e9bc       0x1c ./driverlib/usb.o
                0x0000e9bc                USBHostMode
 .text.USBDevMode
                0x0000e9d8       0x1c ./driverlib/usb.o
                0x0000e9d8                USBDevMode
 .text.USBOTGMode
                0x0000e9f4       0x1c ./driverlib/usb.o
                0x0000e9f4                USBOTGMode
 .text.USBModeConfig
                0x0000ea10       0x20 ./driverlib/usb.o
                0x0000ea10                USBModeConfig
 .text.USBPHYPowerOff
                0x0000ea30       0x28 ./driverlib/usb.o
                0x0000ea30                USBPHYPowerOff
 .text.USBPHYPowerOn
                0x0000ea58       0x28 ./driverlib/usb.o
                0x0000ea58                USBPHYPowerOn
 .text.USBEndpointPacketCountSet
                0x0000ea80       0x30 ./driverlib/usb.o
                0x0000ea80                USBEndpointPacketCountSet
 .text.USBNumEndpointsGet
                0x0000eab0       0x20 ./driverlib/usb.o
                0x0000eab0                USBNumEndpointsGet
 .text.USBControllerVersion
                0x0000ead0       0x20 ./driverlib/usb.o
                0x0000ead0                USBControllerVersion
 .text.USBClockEnable
                0x0000eaf0       0x28 ./driverlib/usb.o
                0x0000eaf0                USBClockEnable
 .text.USBClockDisable
                0x0000eb18       0x20 ./driverlib/usb.o
                0x0000eb18                USBClockDisable
 .text.USBDMAChannelIntEnable
                0x0000eb38       0x38 ./driverlib/usb.o
                0x0000eb38                USBDMAChannelIntEnable
 .text.USBDMAChannelIntDisable
                0x0000eb70       0x38 ./driverlib/usb.o
                0x0000eb70                USBDMAChannelIntDisable
 .text.USBDMAChannelIntStatus
                0x0000eba8       0x1c ./driverlib/usb.o
                0x0000eba8                USBDMAChannelIntStatus
 .text.USBDMAChannelEnable
                0x0000ebc4       0x38 ./driverlib/usb.o
                0x0000ebc4                USBDMAChannelEnable
 .text.USBDMAChannelDisable
                0x0000ebfc       0x38 ./driverlib/usb.o
                0x0000ebfc                USBDMAChannelDisable
 .text.USBDMAChannelConfigSet
                0x0000ec34       0x40 ./driverlib/usb.o
                0x0000ec34                USBDMAChannelConfigSet
 .text.USBDMAChannelStatus
                0x0000ec74       0x28 ./driverlib/usb.o
                0x0000ec74                USBDMAChannelStatus
 .text.USBDMAChannelStatusClear
                0x0000ec9c       0x44 ./driverlib/usb.o
                0x0000ec9c                USBDMAChannelStatusClear
 .text.USBDMAChannelAddressSet
                0x0000ece0       0x28 ./driverlib/usb.o
                0x0000ece0                USBDMAChannelAddressSet
 .text.USBDMAChannelAddressGet
                0x0000ed08       0x24 ./driverlib/usb.o
                0x0000ed08                USBDMAChannelAddressGet
 .text.USBDMAChannelCountSet
                0x0000ed2c       0x28 ./driverlib/usb.o
                0x0000ed2c                USBDMAChannelCountSet
 .text.USBDMAChannelCountGet
                0x0000ed54       0x24 ./driverlib/usb.o
                0x0000ed54                USBDMAChannelCountGet
 .text.USBDMANumChannels
                0x0000ed78       0x1c ./driverlib/usb.o
                0x0000ed78                USBDMANumChannels
 .text.USBULPIConfig
                0x0000ed94       0x20 ./driverlib/usb.o
                0x0000ed94                USBULPIConfig
 .text.USBULPIEnable
                0x0000edb4       0x28 ./driverlib/usb.o
                0x0000edb4                USBULPIEnable
 .text.USBULPIDisable
                0x0000eddc       0x28 ./driverlib/usb.o
                0x0000eddc                USBULPIDisable
 .text.USBULPIRegRead
                0x0000ee04       0x4c ./driverlib/usb.o
                0x0000ee04                USBULPIRegRead
 .text.USBULPIRegWrite
                0x0000ee50       0x50 ./driverlib/usb.o
                0x0000ee50                USBULPIRegWrite
 .text.USBHostLPMSend
                0x0000eea0       0x64 ./driverlib/usb.o
                0x0000eea0                USBHostLPMSend
 .text.USBHostLPMConfig
                0x0000ef04       0x40 ./driverlib/usb.o
                0x0000ef04                USBHostLPMConfig
 .text.USBHostLPMResume
                0x0000ef44       0x2c ./driverlib/usb.o
                0x0000ef44                USBHostLPMResume
 .text.USBDevLPMRemoteWake
                0x0000ef70       0x2c ./driverlib/usb.o
                0x0000ef70                USBDevLPMRemoteWake
 .text.USBDevLPMConfig
                0x0000ef9c       0x20 ./driverlib/usb.o
                0x0000ef9c                USBDevLPMConfig
 .text.USBDevLPMEnable
                0x0000efbc       0x2c ./driverlib/usb.o
                0x0000efbc                USBDevLPMEnable
 .text.USBDevLPMDisable
                0x0000efe8       0x2c ./driverlib/usb.o
                0x0000efe8                USBDevLPMDisable
 .text.USBLPMLinkStateGet
                0x0000f014       0x24 ./driverlib/usb.o
                0x0000f014                USBLPMLinkStateGet
 .text.USBLPMEndpointGet
                0x0000f038       0x28 ./driverlib/usb.o
                0x0000f038                USBLPMEndpointGet
 .text.USBLPMRemoteWakeEnabled
                0x0000f060       0x2c ./driverlib/usb.o
                0x0000f060                USBLPMRemoteWakeEnabled
 .text.USBLPMIntStatus
                0x0000f08c       0x20 ./driverlib/usb.o
                0x0000f08c                USBLPMIntStatus
 .text.USBLPMIntEnable
                0x0000f0ac       0x30 ./driverlib/usb.o
                0x0000f0ac                USBLPMIntEnable
 .text.USBLPMIntDisable
                0x0000f0dc       0x34 ./driverlib/usb.o
                0x0000f0dc                USBLPMIntDisable
 .text.WatchdogRunning
                0x0000f110       0x28 ./driverlib/watchdog.o
                0x0000f110                WatchdogRunning
 .text.WatchdogEnable
                0x0000f138       0x24 ./driverlib/watchdog.o
                0x0000f138                WatchdogEnable
 .text.WatchdogResetEnable
                0x0000f15c       0x24 ./driverlib/watchdog.o
                0x0000f15c                WatchdogResetEnable
 .text.WatchdogResetDisable
                0x0000f180       0x24 ./driverlib/watchdog.o
                0x0000f180                WatchdogResetDisable
 .text.WatchdogLock
                0x0000f1a4       0x20 ./driverlib/watchdog.o
                0x0000f1a4                WatchdogLock
 .text.WatchdogUnlock
                0x0000f1c4       0x24 ./driverlib/watchdog.o
                0x0000f1c4                WatchdogUnlock
 .text.WatchdogLockState
                0x0000f1e8       0x28 ./driverlib/watchdog.o
                0x0000f1e8                WatchdogLockState
 .text.WatchdogReloadSet
                0x0000f210       0x1c ./driverlib/watchdog.o
                0x0000f210                WatchdogReloadSet
 .text.WatchdogReloadGet
                0x0000f22c       0x18 ./driverlib/watchdog.o
                0x0000f22c                WatchdogReloadGet
 .text.WatchdogValueGet
                0x0000f244       0x1c ./driverlib/watchdog.o
                0x0000f244                WatchdogValueGet
 .text.WatchdogIntRegister
                0x0000f260       0x20 ./driverlib/watchdog.o
                0x0000f260                WatchdogIntRegister
 .text.WatchdogIntUnregister
                0x0000f280       0x1c ./driverlib/watchdog.o
                0x0000f280                WatchdogIntUnregister
 .text.WatchdogIntEnable
                0x0000f29c       0x24 ./driverlib/watchdog.o
                0x0000f29c                WatchdogIntEnable
 .text.WatchdogIntStatus
                0x0000f2c0       0x2c ./driverlib/watchdog.o
                0x0000f2c0                WatchdogIntStatus
 .text.WatchdogIntClear
                0x0000f2ec       0x1c ./driverlib/watchdog.o
                0x0000f2ec                WatchdogIntClear
 .text.WatchdogIntTypeSet
                0x0000f308       0x2c ./driverlib/watchdog.o
                0x0000f308                WatchdogIntTypeSet
 .text.WatchdogStallEnable
                0x0000f334       0x28 ./driverlib/watchdog.o
                0x0000f334                WatchdogStallEnable
 .text.WatchdogStallDisable
                0x0000f35c       0x28 ./driverlib/watchdog.o
                0x0000f35c                WatchdogStallDisable
 .text.exit     0x0000f384       0x20 c:/ti/ccsv6/tools/compiler/gcc-arm-none-eabi-4_9-2015q3/bin/../lib/gcc/arm-none-eabi/4.9.3/../../../../arm-none-eabi/lib/armv7e-m/fpu\libc.a(lib_a-exit.o)
                0x0000f384                exit
 .text.__libc_init_array
                0x0000f3a4       0x50 c:/ti/ccsv6/tools/compiler/gcc-arm-none-eabi-4_9-2015q3/bin/../lib/gcc/arm-none-eabi/4.9.3/../../../../arm-none-eabi/lib/armv7e-m/fpu\libc.a(lib_a-init.o)
                0x0000f3a4                __libc_init_array
 .text.memset   0x0000f3f4       0x9c c:/ti/ccsv6/tools/compiler/gcc-arm-none-eabi-4_9-2015q3/bin/../lib/gcc/arm-none-eabi/4.9.3/../../../../arm-none-eabi/lib/armv7e-m/fpu\libc.a(lib_a-memset.o)
                0x0000f3f4                memset
 .text.startup.register_fini
                0x0000f490       0x14 c:/ti/ccsv6/tools/compiler/gcc-arm-none-eabi-4_9-2015q3/bin/../lib/gcc/arm-none-eabi/4.9.3/../../../../arm-none-eabi/lib/armv7e-m/fpu\libc.a(lib_a-__call_atexit.o)
 .text.__call_exitprocs
                0x0000f4a4       0xd4 c:/ti/ccsv6/tools/compiler/gcc-arm-none-eabi-4_9-2015q3/bin/../lib/gcc/arm-none-eabi/4.9.3/../../../../arm-none-eabi/lib/armv7e-m/fpu\libc.a(lib_a-__call_atexit.o)
                0x0000f4a4                __call_exitprocs
 .text.atexit   0x0000f578        0xc c:/ti/ccsv6/tools/compiler/gcc-arm-none-eabi-4_9-2015q3/bin/../lib/gcc/arm-none-eabi/4.9.3/../../../../arm-none-eabi/lib/armv7e-m/fpu\libc.a(lib_a-atexit.o)
                0x0000f578                atexit
 .text.__libc_fini_array
                0x0000f584       0x2c c:/ti/ccsv6/tools/compiler/gcc-arm-none-eabi-4_9-2015q3/bin/../lib/gcc/arm-none-eabi/4.9.3/../../../../arm-none-eabi/lib/armv7e-m/fpu\libc.a(lib_a-fini.o)
                0x0000f584                __libc_fini_array
 .text.__register_exitproc
                0x0000f5b0       0xa4 c:/ti/ccsv6/tools/compiler/gcc-arm-none-eabi-4_9-2015q3/bin/../lib/gcc/arm-none-eabi/4.9.3/../../../../arm-none-eabi/lib/armv7e-m/fpu\libc.a(lib_a-__atexit.o)
                0x0000f5b0                __register_exitproc
 .text._exit    0x0000f654        0x4 c:/ti/ccsv6/tools/compiler/gcc-arm-none-eabi-4_9-2015q3/bin/../lib/gcc/arm-none-eabi/4.9.3/../../../../arm-none-eabi/lib/armv7e-m/fpu\libnosys.a(_exit.o)
                0x0000f654                _exit
                0x0000f658                . = ALIGN (0x4)
 *(.ctors)
                0x0000f658                . = ALIGN (0x4)
 *(.dtors)
                0x0000f658                . = ALIGN (0x4)
                0x0000f658                __init_array_start = .
 *(.init_array*)
 .init_array    0x0000f658        0x4 c:/ti/ccsv6/tools/compiler/gcc-arm-none-eabi-4_9-2015q3/bin/../lib/gcc/arm-none-eabi/4.9.3/armv7e-m/fpu/crtbegin.o
 .init_array.00000
                0x0000f65c        0x4 c:/ti/ccsv6/tools/compiler/gcc-arm-none-eabi-4_9-2015q3/bin/../lib/gcc/arm-none-eabi/4.9.3/../../../../arm-none-eabi/lib/armv7e-m/fpu\libc.a(lib_a-__call_atexit.o)
                0x0000f660                __init_array_end = .
 *(.init)
 .init          0x0000f660        0x4 c:/ti/ccsv6/tools/compiler/gcc-arm-none-eabi-4_9-2015q3/bin/../lib/gcc/arm-none-eabi/4.9.3/armv7e-m/fpu/crti.o
                0x0000f660                _init
 .init          0x0000f664        0x8 c:/ti/ccsv6/tools/compiler/gcc-arm-none-eabi-4_9-2015q3/bin/../lib/gcc/arm-none-eabi/4.9.3/armv7e-m/fpu/crtn.o
 *(.fini*)
 .fini          0x0000f66c        0x4 c:/ti/ccsv6/tools/compiler/gcc-arm-none-eabi-4_9-2015q3/bin/../lib/gcc/arm-none-eabi/4.9.3/armv7e-m/fpu/crti.o
                0x0000f66c                _fini
 .fini_array    0x0000f670        0x4 c:/ti/ccsv6/tools/compiler/gcc-arm-none-eabi-4_9-2015q3/bin/../lib/gcc/arm-none-eabi/4.9.3/armv7e-m/fpu/crtbegin.o
 .fini          0x0000f674        0x8 c:/ti/ccsv6/tools/compiler/gcc-arm-none-eabi-4_9-2015q3/bin/../lib/gcc/arm-none-eabi/4.9.3/armv7e-m/fpu/crtn.o
                0x0000f67c                PROVIDE (__etext, .)
                0x0000f67c                PROVIDE (_etext, .)
                0x0000f67c                PROVIDE (etext, .)

.glue_7         0x0000f67c        0x0
 .glue_7        0x00000000        0x0 linker stubs

.glue_7t        0x0000f67c        0x0
 .glue_7t       0x00000000        0x0 linker stubs

.vfp11_veneer   0x0000f67c        0x0
 .vfp11_veneer  0x00000000        0x0 linker stubs

.v4_bx          0x0000f67c        0x0
 .v4_bx         0x00000000        0x0 linker stubs

.iplt           0x0000f67c        0x0
 .iplt          0x00000000        0x0 c:/ti/ccsv6/tools/compiler/gcc-arm-none-eabi-4_9-2015q3/bin/../lib/gcc/arm-none-eabi/4.9.3/armv7e-m/fpu/crtbegin.o

.rodata         0x0000f67c      0xea8
 *(.rodata)
 *(.rodata*)
 .rodata.g_ui16CANBitValues
                0x0000f67c       0x20 ./driverlib/can.o
 .rodata.g_pi16MIIClockDiv
                0x0000f69c       0x18 ./driverlib/emac.o
 .rodata.g_pui32FMPPERegs
                0x0000f6b4       0x40 ./driverlib/flash.o
 .rodata.g_pui32FMPRERegs
                0x0000f6f4       0x40 ./driverlib/flash.o
 .rodata.g_ppui32GPIOIntMapBlizzard
                0x0000f734       0xc0 ./driverlib/gpio.o
 .rodata.g_ui32GPIOIntMapBlizzardRows
                0x0000f7f4        0x4 ./driverlib/gpio.o
 .rodata.g_ppui32GPIOIntMapSnowflake
                0x0000f7f8       0xc0 ./driverlib/gpio.o
 .rodata.g_ui32GPIOIntMapSnowflakeRows
                0x0000f8b8        0x4 ./driverlib/gpio.o
 .rodata.g_pui32GPIOBaseAddrs
                0x0000f8bc       0x90 ./driverlib/gpio.o
 .rodata.g_ppui32I2CIntMap
                0x0000f94c       0x30 ./driverlib/i2c.o
 .rodata.g_i8I2CIntMapRows
                0x0000f97c        0x4 ./driverlib/i2c.o
 .rodata.g_ppui32I2CIntMapSnowflake
                0x0000f980       0x50 ./driverlib/i2c.o
 .rodata.g_i8I2CIntMapSnowflakeRows
                0x0000f9d0        0x4 ./driverlib/i2c.o
 .rodata.g_pui32Priority
                0x0000f9d4       0x20 ./driverlib/interrupt.o
 .rodata.g_pui32Regs
                0x0000f9f4       0x9c ./driverlib/interrupt.o
 .rodata.g_pui32EnRegs
                0x0000fa90       0x14 ./driverlib/interrupt.o
 .rodata.g_pui32Dii16Regs
                0x0000faa4       0x14 ./driverlib/interrupt.o
 .rodata.g_pui32PendRegs
                0x0000fab8       0x14 ./driverlib/interrupt.o
 .rodata.g_pui32UnpendRegs
                0x0000facc       0x14 ./driverlib/interrupt.o
 .rodata.g_ppui32SSIIntMap
                0x0000fae0       0x20 ./driverlib/ssi.o
 .rodata.g_ui8SSIIntMapRows
                0x0000fb00        0x4 ./driverlib/ssi.o
 .rodata.g_ppui32SSIIntMapSnowflake
                0x0000fb04       0x20 ./driverlib/ssi.o
 .rodata.g_ui8SSIIntMapSnowflakeRows
                0x0000fb24        0x4 ./driverlib/ssi.o
 .rodata.g_pui8Crc8CCITT
                0x0000fb28      0x100 ./driverlib/sw_crc.o
 .rodata.g_pui16Crc16
                0x0000fc28      0x200 ./driverlib/sw_crc.o
 .rodata.g_pui32Crc32
                0x0000fe28      0x400 ./driverlib/sw_crc.o
 .rodata.g_pui32Xtals
                0x00010228       0x6c ./driverlib/sysctl.o
 .rodata.g_pppui32XTALtoVCO
                0x00010294      0x120 ./driverlib/sysctl.o
 .rodata.g_sXTALtoMEMTIM
                0x000103b4       0x30 ./driverlib/sysctl.o
 .rodata.g_pui32VCOFrequencies
                0x000103e4        0x8 ./driverlib/sysctl.o
 .rodata.g_ppui32TimerIntMap
                0x000103ec       0x60 ./driverlib/timer.o
 .rodata.g_ui8TimerIntMapRows
                0x0001044c        0x4 ./driverlib/timer.o
 .rodata.g_ppui32TimerIntMapSnowflake
                0x00010450       0x40 ./driverlib/timer.o
 .rodata.g_ui8TimerIntMapRowsSnowflake
                0x00010490        0x4 ./driverlib/timer.o
 .rodata.g_ppui32UARTIntMap
                0x00010494       0x40 ./driverlib/uart.o
 .rodata.g_ui8UARTIntMapRows
                0x000104d4        0x4 ./driverlib/uart.o
 .rodata.g_ppui32UARTIntMapSnowflake
                0x000104d8       0x40 ./driverlib/uart.o
 .rodata.g_ui8UARTIntMapRowsSnowflake
                0x00010518        0x4 ./driverlib/uart.o
 .rodata.str1.4
                0x0001051c        0x4 c:/ti/ccsv6/tools/compiler/gcc-arm-none-eabi-4_9-2015q3/bin/../lib/gcc/arm-none-eabi/4.9.3/../../../../arm-none-eabi/lib/armv7e-m/fpu\libc.a(lib_a-impure.o)
                                  0x2 (size before relaxing)
 .rodata._global_impure_ptr
                0x00010520        0x4 c:/ti/ccsv6/tools/compiler/gcc-arm-none-eabi-4_9-2015q3/bin/../lib/gcc/arm-none-eabi/4.9.3/../../../../arm-none-eabi/lib/armv7e-m/fpu\libc.a(lib_a-impure.o)
                0x00010520                _global_impure_ptr

.eh_frame       0x00010524        0x4
 .eh_frame      0x00010524        0x0 c:/ti/ccsv6/tools/compiler/gcc-arm-none-eabi-4_9-2015q3/bin/../lib/gcc/arm-none-eabi/4.9.3/armv7e-m/fpu/crtbegin.o
 .eh_frame      0x00010524        0x4 c:/ti/ccsv6/tools/compiler/gcc-arm-none-eabi-4_9-2015q3/bin/../lib/gcc/arm-none-eabi/4.9.3/armv7e-m/fpu/crtend.o

.data           0x20000000      0x434 load address 0x00010528
                0x00010528                __data_load__ = LOADADDR (.data)
                0x20000000                __data_start__ = .
 *(.data)
 .data          0x20000000        0x0 c:/ti/ccsv6/tools/compiler/gcc-arm-none-eabi-4_9-2015q3/bin/../lib/gcc/arm-none-eabi/4.9.3/armv7e-m/fpu/crti.o
 .data          0x20000000        0x4 c:/ti/ccsv6/tools/compiler/gcc-arm-none-eabi-4_9-2015q3/bin/../lib/gcc/arm-none-eabi/4.9.3/armv7e-m/fpu/crtbegin.o
                0x20000000                __dso_handle
 .data          0x20000004        0x0 c:/ti/ccsv6/tools/compiler/gcc-arm-none-eabi-4_9-2015q3/bin/../lib/gcc/arm-none-eabi/4.9.3/../../../../arm-none-eabi/lib/armv7e-m/fpu/crt0.o
 .data          0x20000004        0x0 ./main.o
 .data          0x20000004        0x0 ./tm4c123gh6pm_startup_ccs_gcc.o
 .data          0x20000004        0x0 ./driverlib/adc.o
 .data          0x20000004        0x0 ./driverlib/aes.o
 .data          0x20000004        0x0 ./driverlib/can.o
 .data          0x20000004        0x0 ./driverlib/comp.o
 .data          0x20000004        0x0 ./driverlib/cpu.o
 .data          0x20000004        0x0 ./driverlib/crc.o
 .data          0x20000004        0x0 ./driverlib/des.o
 .data          0x20000004        0x0 ./driverlib/eeprom.o
 .data          0x20000004        0x0 ./driverlib/emac.o
 .data          0x20000004        0x0 ./driverlib/epi.o
 .data          0x20000004        0x0 ./driverlib/flash.o
 .data          0x20000004        0x0 ./driverlib/fpu.o
 .data          0x20000004        0x0 ./driverlib/gpio.o
 .data          0x20000004        0x0 ./driverlib/hibernate.o
 .data          0x20000004        0x0 ./driverlib/i2c.o
 .data          0x20000004        0x0 ./driverlib/interrupt.o
 .data          0x20000004        0x0 ./driverlib/lcd.o
 .data          0x20000004        0x0 ./driverlib/mpu.o
 .data          0x20000004        0x0 ./driverlib/onewire.o
 .data          0x20000004        0x0 ./driverlib/pwm.o
 .data          0x20000004        0x0 ./driverlib/qei.o
 .data          0x20000004        0x0 ./driverlib/shamd5.o
 .data          0x20000004        0x0 ./driverlib/ssi.o
 .data          0x20000004        0x0 ./driverlib/sw_crc.o
 .data          0x20000004        0x0 ./driverlib/sysctl.o
 .data          0x20000004        0x0 ./driverlib/sysexc.o
 .data          0x20000004        0x0 ./driverlib/systick.o
 .data          0x20000004        0x0 ./driverlib/timer.o
 .data          0x20000004        0x0 ./driverlib/uart.o
 .data          0x20000004        0x0 ./driverlib/udma.o
 .data          0x20000004        0x0 ./driverlib/usb.o
 .data          0x20000004        0x0 ./driverlib/watchdog.o
 .data          0x20000004        0x0 c:/ti/ccsv6/tools/compiler/gcc-arm-none-eabi-4_9-2015q3/bin/../lib/gcc/arm-none-eabi/4.9.3/../../../../arm-none-eabi/lib/armv7e-m/fpu\libc.a(lib_a-exit.o)
 .data          0x20000004        0x0 c:/ti/ccsv6/tools/compiler/gcc-arm-none-eabi-4_9-2015q3/bin/../lib/gcc/arm-none-eabi/4.9.3/../../../../arm-none-eabi/lib/armv7e-m/fpu\libc.a(lib_a-impure.o)
 .data          0x20000004        0x0 c:/ti/ccsv6/tools/compiler/gcc-arm-none-eabi-4_9-2015q3/bin/../lib/gcc/arm-none-eabi/4.9.3/../../../../arm-none-eabi/lib/armv7e-m/fpu\libc.a(lib_a-init.o)
 .data          0x20000004        0x0 c:/ti/ccsv6/tools/compiler/gcc-arm-none-eabi-4_9-2015q3/bin/../lib/gcc/arm-none-eabi/4.9.3/../../../../arm-none-eabi/lib/armv7e-m/fpu\libc.a(lib_a-memset.o)
 .data          0x20000004        0x0 c:/ti/ccsv6/tools/compiler/gcc-arm-none-eabi-4_9-2015q3/bin/../lib/gcc/arm-none-eabi/4.9.3/../../../../arm-none-eabi/lib/armv7e-m/fpu\libc.a(lib_a-__call_atexit.o)
 .data          0x20000004        0x0 c:/ti/ccsv6/tools/compiler/gcc-arm-none-eabi-4_9-2015q3/bin/../lib/gcc/arm-none-eabi/4.9.3/../../../../arm-none-eabi/lib/armv7e-m/fpu\libc.a(lib_a-atexit.o)
 .data          0x20000004        0x0 c:/ti/ccsv6/tools/compiler/gcc-arm-none-eabi-4_9-2015q3/bin/../lib/gcc/arm-none-eabi/4.9.3/../../../../arm-none-eabi/lib/armv7e-m/fpu\libc.a(lib_a-fini.o)
 .data          0x20000004        0x0 c:/ti/ccsv6/tools/compiler/gcc-arm-none-eabi-4_9-2015q3/bin/../lib/gcc/arm-none-eabi/4.9.3/../../../../arm-none-eabi/lib/armv7e-m/fpu\libc.a(lib_a-__atexit.o)
 .data          0x20000004        0x0 c:/ti/ccsv6/tools/compiler/gcc-arm-none-eabi-4_9-2015q3/bin/../lib/gcc/arm-none-eabi/4.9.3/../../../../arm-none-eabi/lib/armv7e-m/fpu\libnosys.a(_exit.o)
 .data          0x20000004        0x0 c:/ti/ccsv6/tools/compiler/gcc-arm-none-eabi-4_9-2015q3/bin/../lib/gcc/arm-none-eabi/4.9.3/armv7e-m/fpu/crtend.o
 .data          0x20000004        0x0 c:/ti/ccsv6/tools/compiler/gcc-arm-none-eabi-4_9-2015q3/bin/../lib/gcc/arm-none-eabi/4.9.3/armv7e-m/fpu/crtn.o
 *(.data*)
 *fill*         0x20000004        0x4 
 .data.impure_data
                0x20000008      0x428 c:/ti/ccsv6/tools/compiler/gcc-arm-none-eabi-4_9-2015q3/bin/../lib/gcc/arm-none-eabi/4.9.3/../../../../arm-none-eabi/lib/armv7e-m/fpu\libc.a(lib_a-impure.o)
 .data._impure_ptr
                0x20000430        0x4 c:/ti/ccsv6/tools/compiler/gcc-arm-none-eabi-4_9-2015q3/bin/../lib/gcc/arm-none-eabi/4.9.3/../../../../arm-none-eabi/lib/armv7e-m/fpu\libc.a(lib_a-impure.o)
                0x20000430                _impure_ptr
                0x20000434                . = ALIGN (0x4)
                0x20000434                __data_end__ = .

.jcr            0x20000434        0x4 load address 0x0001095c
 .jcr           0x20000434        0x0 c:/ti/ccsv6/tools/compiler/gcc-arm-none-eabi-4_9-2015q3/bin/../lib/gcc/arm-none-eabi/4.9.3/armv7e-m/fpu/crtbegin.o
 .jcr           0x20000434        0x4 c:/ti/ccsv6/tools/compiler/gcc-arm-none-eabi-4_9-2015q3/bin/../lib/gcc/arm-none-eabi/4.9.3/armv7e-m/fpu/crtend.o

.igot.plt       0x20000438        0x0 load address 0x00010960
 .igot.plt      0x00000000        0x0 c:/ti/ccsv6/tools/compiler/gcc-arm-none-eabi-4_9-2015q3/bin/../lib/gcc/arm-none-eabi/4.9.3/armv7e-m/fpu/crtbegin.o

vtable          0x20000800      0x26c load address 0x00010960
                0x20000800                PROVIDE (__start_vtable, .)
 vtable         0x20000800      0x26c ./driverlib/interrupt.o
                0x20000a6c                PROVIDE (__stop_vtable, .)

.ARM.exidx      0x00010bcc        0x8
                0x00010bcc                __exidx_start = .
 *(.ARM.exidx* .gnu.linkonce.armexidx.*)
 .ARM.exidx     0x00010bcc        0x8 c:/ti/ccsv6/tools/compiler/gcc-arm-none-eabi-4_9-2015q3/bin/../lib/gcc/arm-none-eabi/4.9.3/../../../../arm-none-eabi/lib/armv7e-m/fpu/crt0.o
                0x00010bd4                __exidx_end = .

.ARM.extab      0x00010bd4        0x0
 *(.ARM.extab* .gnu.linkonce.armextab.*)
 .ARM.extab     0x00010bd4        0x0 c:/ti/ccsv6/tools/compiler/gcc-arm-none-eabi-4_9-2015q3/bin/../lib/gcc/arm-none-eabi/4.9.3/../../../../arm-none-eabi/lib/armv7e-m/fpu/crt0.o

.rel.dyn        0x00010bd4        0x0
 .rel.iplt      0x00000000        0x0 c:/ti/ccsv6/tools/compiler/gcc-arm-none-eabi-4_9-2015q3/bin/../lib/gcc/arm-none-eabi/4.9.3/armv7e-m/fpu/crtbegin.o

.bss            0x20000a6c      0x220
                0x20000a6c                __bss_start__ = .
 *(.shbss)
 *(.bss)
 .bss           0x20000a6c        0x0 c:/ti/ccsv6/tools/compiler/gcc-arm-none-eabi-4_9-2015q3/bin/../lib/gcc/arm-none-eabi/4.9.3/armv7e-m/fpu/crti.o
 .bss           0x20000a6c       0x1c c:/ti/ccsv6/tools/compiler/gcc-arm-none-eabi-4_9-2015q3/bin/../lib/gcc/arm-none-eabi/4.9.3/armv7e-m/fpu/crtbegin.o
 .bss           0x20000a88        0x0 c:/ti/ccsv6/tools/compiler/gcc-arm-none-eabi-4_9-2015q3/bin/../lib/gcc/arm-none-eabi/4.9.3/../../../../arm-none-eabi/lib/armv7e-m/fpu/crt0.o
 .bss           0x20000a88        0x0 ./main.o
 .bss           0x20000a88        0x0 ./tm4c123gh6pm_startup_ccs_gcc.o
 .bss           0x20000a88        0x0 ./driverlib/adc.o
 .bss           0x20000a88        0x0 ./driverlib/aes.o
 .bss           0x20000a88        0x0 ./driverlib/can.o
 .bss           0x20000a88        0x0 ./driverlib/comp.o
 .bss           0x20000a88        0x0 ./driverlib/cpu.o
 .bss           0x20000a88        0x0 ./driverlib/crc.o
 .bss           0x20000a88        0x0 ./driverlib/des.o
 .bss           0x20000a88        0x0 ./driverlib/eeprom.o
 .bss           0x20000a88        0x0 ./driverlib/emac.o
 .bss           0x20000a88        0x0 ./driverlib/epi.o
 .bss           0x20000a88        0x0 ./driverlib/flash.o
 .bss           0x20000a88        0x0 ./driverlib/fpu.o
 .bss           0x20000a88        0x0 ./driverlib/gpio.o
 .bss           0x20000a88        0x0 ./driverlib/hibernate.o
 .bss           0x20000a88        0x0 ./driverlib/i2c.o
 .bss           0x20000a88        0x0 ./driverlib/interrupt.o
 .bss           0x20000a88        0x0 ./driverlib/lcd.o
 .bss           0x20000a88        0x0 ./driverlib/mpu.o
 .bss           0x20000a88        0x0 ./driverlib/onewire.o
 .bss           0x20000a88        0x0 ./driverlib/pwm.o
 .bss           0x20000a88        0x0 ./driverlib/qei.o
 .bss           0x20000a88        0x0 ./driverlib/shamd5.o
 .bss           0x20000a88        0x0 ./driverlib/ssi.o
 .bss           0x20000a88        0x0 ./driverlib/sw_crc.o
 .bss           0x20000a88        0x0 ./driverlib/sysctl.o
 .bss           0x20000a88        0x0 ./driverlib/sysexc.o
 .bss           0x20000a88        0x0 ./driverlib/systick.o
 .bss           0x20000a88        0x0 ./driverlib/timer.o
 .bss           0x20000a88        0x0 ./driverlib/uart.o
 .bss           0x20000a88        0x0 ./driverlib/udma.o
 .bss           0x20000a88        0x0 ./driverlib/usb.o
 .bss           0x20000a88        0x0 ./driverlib/watchdog.o
 .bss           0x20000a88        0x0 c:/ti/ccsv6/tools/compiler/gcc-arm-none-eabi-4_9-2015q3/bin/../lib/gcc/arm-none-eabi/4.9.3/../../../../arm-none-eabi/lib/armv7e-m/fpu\libc.a(lib_a-exit.o)
 .bss           0x20000a88        0x0 c:/ti/ccsv6/tools/compiler/gcc-arm-none-eabi-4_9-2015q3/bin/../lib/gcc/arm-none-eabi/4.9.3/../../../../arm-none-eabi/lib/armv7e-m/fpu\libc.a(lib_a-impure.o)
 .bss           0x20000a88        0x0 c:/ti/ccsv6/tools/compiler/gcc-arm-none-eabi-4_9-2015q3/bin/../lib/gcc/arm-none-eabi/4.9.3/../../../../arm-none-eabi/lib/armv7e-m/fpu\libc.a(lib_a-init.o)
 .bss           0x20000a88        0x0 c:/ti/ccsv6/tools/compiler/gcc-arm-none-eabi-4_9-2015q3/bin/../lib/gcc/arm-none-eabi/4.9.3/../../../../arm-none-eabi/lib/armv7e-m/fpu\libc.a(lib_a-memset.o)
 .bss           0x20000a88        0x0 c:/ti/ccsv6/tools/compiler/gcc-arm-none-eabi-4_9-2015q3/bin/../lib/gcc/arm-none-eabi/4.9.3/../../../../arm-none-eabi/lib/armv7e-m/fpu\libc.a(lib_a-__call_atexit.o)
 .bss           0x20000a88        0x0 c:/ti/ccsv6/tools/compiler/gcc-arm-none-eabi-4_9-2015q3/bin/../lib/gcc/arm-none-eabi/4.9.3/../../../../arm-none-eabi/lib/armv7e-m/fpu\libc.a(lib_a-atexit.o)
 .bss           0x20000a88        0x0 c:/ti/ccsv6/tools/compiler/gcc-arm-none-eabi-4_9-2015q3/bin/../lib/gcc/arm-none-eabi/4.9.3/../../../../arm-none-eabi/lib/armv7e-m/fpu\libc.a(lib_a-fini.o)
 .bss           0x20000a88        0x0 c:/ti/ccsv6/tools/compiler/gcc-arm-none-eabi-4_9-2015q3/bin/../lib/gcc/arm-none-eabi/4.9.3/../../../../arm-none-eabi/lib/armv7e-m/fpu\libc.a(lib_a-__atexit.o)
 .bss           0x20000a88        0x0 c:/ti/ccsv6/tools/compiler/gcc-arm-none-eabi-4_9-2015q3/bin/../lib/gcc/arm-none-eabi/4.9.3/../../../../arm-none-eabi/lib/armv7e-m/fpu\libnosys.a(_exit.o)
 .bss           0x20000a88        0x0 c:/ti/ccsv6/tools/compiler/gcc-arm-none-eabi-4_9-2015q3/bin/../lib/gcc/arm-none-eabi/4.9.3/armv7e-m/fpu/crtend.o
 .bss           0x20000a88        0x0 c:/ti/ccsv6/tools/compiler/gcc-arm-none-eabi-4_9-2015q3/bin/../lib/gcc/arm-none-eabi/4.9.3/armv7e-m/fpu/crtn.o
 *(.bss.*)
 .bss.pui32Stack
                0x20000a88      0x200 ./tm4c123gh6pm_startup_ccs_gcc.o
 .bss.g_pui8OversampleFactor
                0x20000c88        0x3 ./driverlib/adc.o
 *(COMMON)
                0x20000c8c                . = ALIGN (0x4)
 *fill*         0x20000c8b        0x1 
                0x20000c8c                __bss_end__ = .

.heap           0x20000c8c        0x0
                0x20000c8c                __heap_start__ = .
                0x20000c8c                end = __heap_start__
                0x20000c8c                _end = end
                0x20000c8c                __end = end
 *(.heap)
                0x20000c8c                __heap_end__ = .
                0x20000c8c                __HeapLimit = __heap_end__

.stack          0x20000c90        0x0
                0x20000c90                _stack = .
                0x20000c90                __stack = .
 *(.stack)
START GROUP
LOAD c:/ti/ccsv6/tools/compiler/gcc-arm-none-eabi-4_9-2015q3/bin/../lib/gcc/arm-none-eabi/4.9.3/../../../../arm-none-eabi/lib/armv7e-m/fpu\libc.a
LOAD c:/ti/ccsv6/tools/compiler/gcc-arm-none-eabi-4_9-2015q3/bin/../lib/gcc/arm-none-eabi/4.9.3/armv7e-m/fpu\libgcc.a
LOAD c:/ti/ccsv6/tools/compiler/gcc-arm-none-eabi-4_9-2015q3/bin/../lib/gcc/arm-none-eabi/4.9.3/../../../../arm-none-eabi/lib/armv7e-m/fpu\libnosys.a
END GROUP
START GROUP
LOAD c:/ti/ccsv6/tools/compiler/gcc-arm-none-eabi-4_9-2015q3/bin/../lib/gcc/arm-none-eabi/4.9.3/armv7e-m/fpu\libgcc.a
LOAD c:/ti/ccsv6/tools/compiler/gcc-arm-none-eabi-4_9-2015q3/bin/../lib/gcc/arm-none-eabi/4.9.3/../../../../arm-none-eabi/lib/armv7e-m/fpu\libg.a
LOAD c:/ti/ccsv6/tools/compiler/gcc-arm-none-eabi-4_9-2015q3/bin/../lib/gcc/arm-none-eabi/4.9.3/../../../../arm-none-eabi/lib/armv7e-m/fpu\libc.a
END GROUP
LOAD c:/ti/ccsv6/tools/compiler/gcc-arm-none-eabi-4_9-2015q3/bin/../lib/gcc/arm-none-eabi/4.9.3/armv7e-m/fpu/crtend.o
LOAD c:/ti/ccsv6/tools/compiler/gcc-arm-none-eabi-4_9-2015q3/bin/../lib/gcc/arm-none-eabi/4.9.3/armv7e-m/fpu/crtn.o
OUTPUT(test.out elf32-littlearm)

.ARM.attributes
                0x00000000       0x30
 .ARM.attributes
                0x00000000       0x22 c:/ti/ccsv6/tools/compiler/gcc-arm-none-eabi-4_9-2015q3/bin/../lib/gcc/arm-none-eabi/4.9.3/armv7e-m/fpu/crti.o
 .ARM.attributes
                0x00000022       0x34 c:/ti/ccsv6/tools/compiler/gcc-arm-none-eabi-4_9-2015q3/bin/../lib/gcc/arm-none-eabi/4.9.3/armv7e-m/fpu/crtbegin.o
 .ARM.attributes
                0x00000056       0x20 c:/ti/ccsv6/tools/compiler/gcc-arm-none-eabi-4_9-2015q3/bin/../lib/gcc/arm-none-eabi/4.9.3/../../../../arm-none-eabi/lib/armv7e-m/fpu/crt0.o
 .ARM.attributes
                0x00000076       0x39 ./main.o
 .ARM.attributes
                0x000000af       0x39 ./tm4c123gh6pm_startup_ccs_gcc.o
 .ARM.attributes
                0x000000e8       0x39 ./driverlib/adc.o
 .ARM.attributes
                0x00000121       0x39 ./driverlib/aes.o
 .ARM.attributes
                0x0000015a       0x39 ./driverlib/can.o
 .ARM.attributes
                0x00000193       0x39 ./driverlib/comp.o
 .ARM.attributes
                0x000001cc       0x39 ./driverlib/cpu.o
 .ARM.attributes
                0x00000205       0x39 ./driverlib/crc.o
 .ARM.attributes
                0x0000023e       0x39 ./driverlib/des.o
 .ARM.attributes
                0x00000277       0x39 ./driverlib/eeprom.o
 .ARM.attributes
                0x000002b0       0x39 ./driverlib/emac.o
 .ARM.attributes
                0x000002e9       0x39 ./driverlib/epi.o
 .ARM.attributes
                0x00000322       0x39 ./driverlib/flash.o
 .ARM.attributes
                0x0000035b       0x39 ./driverlib/fpu.o
 .ARM.attributes
                0x00000394       0x39 ./driverlib/gpio.o
 .ARM.attributes
                0x000003cd       0x39 ./driverlib/hibernate.o
 .ARM.attributes
                0x00000406       0x39 ./driverlib/i2c.o
 .ARM.attributes
                0x0000043f       0x39 ./driverlib/interrupt.o
 .ARM.attributes
                0x00000478       0x39 ./driverlib/lcd.o
 .ARM.attributes
                0x000004b1       0x39 ./driverlib/mpu.o
 .ARM.attributes
                0x000004ea       0x39 ./driverlib/onewire.o
 .ARM.attributes
                0x00000523       0x39 ./driverlib/pwm.o
 .ARM.attributes
                0x0000055c       0x39 ./driverlib/qei.o
 .ARM.attributes
                0x00000595       0x39 ./driverlib/shamd5.o
 .ARM.attributes
                0x000005ce       0x39 ./driverlib/ssi.o
 .ARM.attributes
                0x00000607       0x39 ./driverlib/sw_crc.o
 .ARM.attributes
                0x00000640       0x39 ./driverlib/sysctl.o
 .ARM.attributes
                0x00000679       0x39 ./driverlib/sysexc.o
 .ARM.attributes
                0x000006b2       0x39 ./driverlib/systick.o
 .ARM.attributes
                0x000006eb       0x39 ./driverlib/timer.o
 .ARM.attributes
                0x00000724       0x39 ./driverlib/uart.o
 .ARM.attributes
                0x0000075d       0x39 ./driverlib/udma.o
 .ARM.attributes
                0x00000796       0x39 ./driverlib/usb.o
 .ARM.attributes
                0x000007cf       0x39 ./driverlib/watchdog.o
 .ARM.attributes
                0x00000808       0x34 c:/ti/ccsv6/tools/compiler/gcc-arm-none-eabi-4_9-2015q3/bin/../lib/gcc/arm-none-eabi/4.9.3/../../../../arm-none-eabi/lib/armv7e-m/fpu\libc.a(lib_a-exit.o)
 .ARM.attributes
                0x0000083c       0x34 c:/ti/ccsv6/tools/compiler/gcc-arm-none-eabi-4_9-2015q3/bin/../lib/gcc/arm-none-eabi/4.9.3/../../../../arm-none-eabi/lib/armv7e-m/fpu\libc.a(lib_a-impure.o)
 .ARM.attributes
                0x00000870       0x34 c:/ti/ccsv6/tools/compiler/gcc-arm-none-eabi-4_9-2015q3/bin/../lib/gcc/arm-none-eabi/4.9.3/../../../../arm-none-eabi/lib/armv7e-m/fpu\libc.a(lib_a-init.o)
 .ARM.attributes
                0x000008a4       0x34 c:/ti/ccsv6/tools/compiler/gcc-arm-none-eabi-4_9-2015q3/bin/../lib/gcc/arm-none-eabi/4.9.3/../../../../arm-none-eabi/lib/armv7e-m/fpu\libc.a(lib_a-memset.o)
 .ARM.attributes
                0x000008d8       0x34 c:/ti/ccsv6/tools/compiler/gcc-arm-none-eabi-4_9-2015q3/bin/../lib/gcc/arm-none-eabi/4.9.3/../../../../arm-none-eabi/lib/armv7e-m/fpu\libc.a(lib_a-__call_atexit.o)
 .ARM.attributes
                0x0000090c       0x34 c:/ti/ccsv6/tools/compiler/gcc-arm-none-eabi-4_9-2015q3/bin/../lib/gcc/arm-none-eabi/4.9.3/../../../../arm-none-eabi/lib/armv7e-m/fpu\libc.a(lib_a-atexit.o)
 .ARM.attributes
                0x00000940       0x34 c:/ti/ccsv6/tools/compiler/gcc-arm-none-eabi-4_9-2015q3/bin/../lib/gcc/arm-none-eabi/4.9.3/../../../../arm-none-eabi/lib/armv7e-m/fpu\libc.a(lib_a-fini.o)
 .ARM.attributes
                0x00000974       0x34 c:/ti/ccsv6/tools/compiler/gcc-arm-none-eabi-4_9-2015q3/bin/../lib/gcc/arm-none-eabi/4.9.3/../../../../arm-none-eabi/lib/armv7e-m/fpu\libc.a(lib_a-__atexit.o)
 .ARM.attributes
                0x000009a8       0x34 c:/ti/ccsv6/tools/compiler/gcc-arm-none-eabi-4_9-2015q3/bin/../lib/gcc/arm-none-eabi/4.9.3/../../../../arm-none-eabi/lib/armv7e-m/fpu\libnosys.a(_exit.o)
 .ARM.attributes
                0x000009dc       0x34 c:/ti/ccsv6/tools/compiler/gcc-arm-none-eabi-4_9-2015q3/bin/../lib/gcc/arm-none-eabi/4.9.3/armv7e-m/fpu/crtend.o
 .ARM.attributes
                0x00000a10       0x22 c:/ti/ccsv6/tools/compiler/gcc-arm-none-eabi-4_9-2015q3/bin/../lib/gcc/arm-none-eabi/4.9.3/armv7e-m/fpu/crtn.o

.comment        0x00000000       0x70
 .comment       0x00000000       0x70 ./main.o
                                 0x71 (size before relaxing)
 .comment       0x00000000       0x71 ./tm4c123gh6pm_startup_ccs_gcc.o
 .comment       0x00000000       0x71 ./driverlib/adc.o
 .comment       0x00000000       0x71 ./driverlib/aes.o
 .comment       0x00000000       0x71 ./driverlib/can.o
 .comment       0x00000000       0x71 ./driverlib/comp.o
 .comment       0x00000000       0x71 ./driverlib/cpu.o
 .comment       0x00000000       0x71 ./driverlib/crc.o
 .comment       0x00000000       0x71 ./driverlib/des.o
 .comment       0x00000000       0x71 ./driverlib/eeprom.o
 .comment       0x00000000       0x71 ./driverlib/emac.o
 .comment       0x00000000       0x71 ./driverlib/epi.o
 .comment       0x00000000       0x71 ./driverlib/flash.o
 .comment       0x00000000       0x71 ./driverlib/fpu.o
 .comment       0x00000000       0x71 ./driverlib/gpio.o
 .comment       0x00000000       0x71 ./driverlib/hibernate.o
 .comment       0x00000000       0x71 ./driverlib/i2c.o
 .comment       0x00000000       0x71 ./driverlib/interrupt.o
 .comment       0x00000000       0x71 ./driverlib/lcd.o
 .comment       0x00000000       0x71 ./driverlib/mpu.o
 .comment       0x00000000       0x71 ./driverlib/onewire.o
 .comment       0x00000000       0x71 ./driverlib/pwm.o
 .comment       0x00000000       0x71 ./driverlib/qei.o
 .comment       0x00000000       0x71 ./driverlib/shamd5.o
 .comment       0x00000000       0x71 ./driverlib/ssi.o
 .comment       0x00000000       0x71 ./driverlib/sw_crc.o
 .comment       0x00000000       0x71 ./driverlib/sysctl.o
 .comment       0x00000000       0x71 ./driverlib/sysexc.o
 .comment       0x00000000       0x71 ./driverlib/systick.o
 .comment       0x00000000       0x71 ./driverlib/timer.o
 .comment       0x00000000       0x71 ./driverlib/uart.o
 .comment       0x00000000       0x71 ./driverlib/udma.o
 .comment       0x00000000       0x71 ./driverlib/usb.o
 .comment       0x00000000       0x71 ./driverlib/watchdog.o

.debug_info     0x00000000     0xf097
 .debug_info    0x00000000       0xb1 ./main.o
 .debug_info    0x000000b1      0x175 ./tm4c123gh6pm_startup_ccs_gcc.o
 .debug_info    0x00000226      0xb71 ./driverlib/adc.o
 .debug_info    0x00000d97      0x6f8 ./driverlib/aes.o
 .debug_info    0x0000148f      0x900 ./driverlib/can.o
 .debug_info    0x00001d8f      0x29f ./driverlib/comp.o
 .debug_info    0x0000202e      0x15b ./driverlib/cpu.o
 .debug_info    0x00002189      0x1de ./driverlib/crc.o
 .debug_info    0x00002367      0x4a0 ./driverlib/des.o
 .debug_info    0x00002807      0x447 ./driverlib/eeprom.o
 .debug_info    0x00002c4e     0x13a4 ./driverlib/emac.o
 .debug_info    0x00003ff2      0xc01 ./driverlib/epi.o
 .debug_info    0x00004bf3      0x48f ./driverlib/flash.o
 .debug_info    0x00005082      0x173 ./driverlib/fpu.o
 .debug_info    0x000051f5      0xcbe ./driverlib/gpio.o
 .debug_info    0x00005eb3      0x970 ./driverlib/hibernate.o
 .debug_info    0x00006823      0xc78 ./driverlib/i2c.o
 .debug_info    0x0000749b      0x46a ./driverlib/interrupt.o
 .debug_info    0x00007905      0x9ef ./driverlib/lcd.o
 .debug_info    0x000082f4      0x1f0 ./driverlib/mpu.o
 .debug_info    0x000084e4      0x3e8 ./driverlib/onewire.o
 .debug_info    0x000088cc      0xae1 ./driverlib/pwm.o
 .debug_info    0x000093ad      0x4c1 ./driverlib/qei.o
 .debug_info    0x0000986e      0x5a5 ./driverlib/shamd5.o
 .debug_info    0x00009e13      0x6c6 ./driverlib/ssi.o
 .debug_info    0x0000a4d9      0x307 ./driverlib/sw_crc.o
 .debug_info    0x0000a7e0      0xb37 ./driverlib/sysctl.o
 .debug_info    0x0000b317      0x1aa ./driverlib/sysexc.o
 .debug_info    0x0000b4c1      0x160 ./driverlib/systick.o
 .debug_info    0x0000b621      0xb07 ./driverlib/timer.o
 .debug_info    0x0000c128      0xb86 ./driverlib/uart.o
 .debug_info    0x0000ccae      0x60a ./driverlib/udma.o
 .debug_info    0x0000d2b8     0x1a44 ./driverlib/usb.o
 .debug_info    0x0000ecfc      0x39b ./driverlib/watchdog.o

.debug_abbrev   0x00000000     0x2058
 .debug_abbrev  0x00000000       0x66 ./main.o
 .debug_abbrev  0x00000066       0xca ./tm4c123gh6pm_startup_ccs_gcc.o
 .debug_abbrev  0x00000130       0xf1 ./driverlib/adc.o
 .debug_abbrev  0x00000221       0xce ./driverlib/aes.o
 .debug_abbrev  0x000002ef      0x157 ./driverlib/can.o
 .debug_abbrev  0x00000446       0xd8 ./driverlib/comp.o
 .debug_abbrev  0x0000051e       0xbe ./driverlib/cpu.o
 .debug_abbrev  0x000005dc       0x8c ./driverlib/crc.o
 .debug_abbrev  0x00000668       0xe7 ./driverlib/des.o
 .debug_abbrev  0x0000074f      0x119 ./driverlib/eeprom.o
 .debug_abbrev  0x00000868      0x137 ./driverlib/emac.o
 .debug_abbrev  0x0000099f       0xf9 ./driverlib/epi.o
 .debug_abbrev  0x00000a98      0x125 ./driverlib/flash.o
 .debug_abbrev  0x00000bbd       0x94 ./driverlib/fpu.o
 .debug_abbrev  0x00000c51       0xe1 ./driverlib/gpio.o
 .debug_abbrev  0x00000d32      0x166 ./driverlib/hibernate.o
 .debug_abbrev  0x00000e98       0xf8 ./driverlib/i2c.o
 .debug_abbrev  0x00000f90       0xfc ./driverlib/interrupt.o
 .debug_abbrev  0x0000108c      0x135 ./driverlib/lcd.o
 .debug_abbrev  0x000011c1       0xd2 ./driverlib/mpu.o
 .debug_abbrev  0x00001293       0xfe ./driverlib/onewire.o
 .debug_abbrev  0x00001391       0xe5 ./driverlib/pwm.o
 .debug_abbrev  0x00001476       0xfe ./driverlib/qei.o
 .debug_abbrev  0x00001574      0x10b ./driverlib/shamd5.o
 .debug_abbrev  0x0000167f       0xf8 ./driverlib/ssi.o
 .debug_abbrev  0x00001777       0xb4 ./driverlib/sw_crc.o
 .debug_abbrev  0x0000182b      0x147 ./driverlib/sysctl.o
 .debug_abbrev  0x00001972       0xce ./driverlib/sysexc.o
 .debug_abbrev  0x00001a40       0xae ./driverlib/systick.o
 .debug_abbrev  0x00001aee      0x101 ./driverlib/timer.o
 .debug_abbrev  0x00001bef      0x111 ./driverlib/uart.o
 .debug_abbrev  0x00001d00      0x159 ./driverlib/udma.o
 .debug_abbrev  0x00001e59      0x127 ./driverlib/usb.o
 .debug_abbrev  0x00001f80       0xd8 ./driverlib/watchdog.o

.debug_aranges  0x00000000     0x2060
 .debug_aranges
                0x00000000       0x20 ./main.o
 .debug_aranges
                0x00000020       0x38 ./tm4c123gh6pm_startup_ccs_gcc.o
 .debug_aranges
                0x00000058      0x160 ./driverlib/adc.o
 .debug_aranges
                0x000001b8       0xe0 ./driverlib/aes.o
 .debug_aranges
                0x00000298       0xc8 ./driverlib/can.o
 .debug_aranges
                0x00000360       0x60 ./driverlib/comp.o
 .debug_aranges
                0x000003c0       0x48 ./driverlib/cpu.o
 .debug_aranges
                0x00000408       0x40 ./driverlib/crc.o
 .debug_aranges
                0x00000448       0xa8 ./driverlib/des.o
 .debug_aranges
                0x000004f0       0xc0 ./driverlib/eeprom.o
 .debug_aranges
                0x000005b0      0x260 ./driverlib/emac.o
 .debug_aranges
                0x00000810      0x160 ./driverlib/epi.o
 .debug_aranges
                0x00000970       0x98 ./driverlib/flash.o
 .debug_aranges
                0x00000a08       0x60 ./driverlib/fpu.o
 .debug_aranges
                0x00000a68      0x190 ./driverlib/gpio.o
 .debug_aranges
                0x00000bf8      0x1c8 ./driverlib/hibernate.o
 .debug_aranges
                0x00000dc0      0x1d0 ./driverlib/i2c.o
 .debug_aranges
                0x00000f90       0xa0 ./driverlib/interrupt.o
 .debug_aranges
                0x00001030      0x108 ./driverlib/lcd.o
 .debug_aranges
                0x00001138       0x60 ./driverlib/mpu.o
 .debug_aranges
                0x00001198       0x90 ./driverlib/onewire.o
 .debug_aranges
                0x00001228      0x148 ./driverlib/pwm.o
 .debug_aranges
                0x00001370       0xc0 ./driverlib/qei.o
 .debug_aranges
                0x00001430       0xb8 ./driverlib/shamd5.o
 .debug_aranges
                0x000014e8       0xd8 ./driverlib/ssi.o
 .debug_aranges
                0x000015c0       0x40 ./driverlib/sw_crc.o
 .debug_aranges
                0x00001600      0x1e0 ./driverlib/sysctl.o
 .debug_aranges
                0x000017e0       0x50 ./driverlib/sysexc.o
 .debug_aranges
                0x00001830       0x60 ./driverlib/systick.o
 .debug_aranges
                0x00001890      0x150 ./driverlib/timer.o
 .debug_aranges
                0x000019e0      0x198 ./driverlib/uart.o
 .debug_aranges
                0x00001b78       0xe8 ./driverlib/udma.o
 .debug_aranges
                0x00001c60      0x358 ./driverlib/usb.o
 .debug_aranges
                0x00001fb8       0xa8 ./driverlib/watchdog.o

.debug_ranges   0x00000000     0x1e40
 .debug_ranges  0x00000000       0x10 ./main.o
 .debug_ranges  0x00000010       0x28 ./tm4c123gh6pm_startup_ccs_gcc.o
 .debug_ranges  0x00000038      0x150 ./driverlib/adc.o
 .debug_ranges  0x00000188       0xd0 ./driverlib/aes.o
 .debug_ranges  0x00000258       0xb8 ./driverlib/can.o
 .debug_ranges  0x00000310       0x50 ./driverlib/comp.o
 .debug_ranges  0x00000360       0x38 ./driverlib/cpu.o
 .debug_ranges  0x00000398       0x30 ./driverlib/crc.o
 .debug_ranges  0x000003c8       0x98 ./driverlib/des.o
 .debug_ranges  0x00000460       0xb0 ./driverlib/eeprom.o
 .debug_ranges  0x00000510      0x250 ./driverlib/emac.o
 .debug_ranges  0x00000760      0x150 ./driverlib/epi.o
 .debug_ranges  0x000008b0       0x88 ./driverlib/flash.o
 .debug_ranges  0x00000938       0x50 ./driverlib/fpu.o
 .debug_ranges  0x00000988      0x180 ./driverlib/gpio.o
 .debug_ranges  0x00000b08      0x1b8 ./driverlib/hibernate.o
 .debug_ranges  0x00000cc0      0x1c0 ./driverlib/i2c.o
 .debug_ranges  0x00000e80       0x90 ./driverlib/interrupt.o
 .debug_ranges  0x00000f10       0xf8 ./driverlib/lcd.o
 .debug_ranges  0x00001008       0x50 ./driverlib/mpu.o
 .debug_ranges  0x00001058       0x80 ./driverlib/onewire.o
 .debug_ranges  0x000010d8      0x138 ./driverlib/pwm.o
 .debug_ranges  0x00001210       0xb0 ./driverlib/qei.o
 .debug_ranges  0x000012c0       0xa8 ./driverlib/shamd5.o
 .debug_ranges  0x00001368       0xc8 ./driverlib/ssi.o
 .debug_ranges  0x00001430       0x30 ./driverlib/sw_crc.o
 .debug_ranges  0x00001460      0x1d0 ./driverlib/sysctl.o
 .debug_ranges  0x00001630       0x40 ./driverlib/sysexc.o
 .debug_ranges  0x00001670       0x50 ./driverlib/systick.o
 .debug_ranges  0x000016c0      0x140 ./driverlib/timer.o
 .debug_ranges  0x00001800      0x188 ./driverlib/uart.o
 .debug_ranges  0x00001988       0xd8 ./driverlib/udma.o
 .debug_ranges  0x00001a60      0x348 ./driverlib/usb.o
 .debug_ranges  0x00001da8       0x98 ./driverlib/watchdog.o

.debug_line     0x00000000     0x811d
 .debug_line    0x00000000      0x117 ./main.o
 .debug_line    0x00000117      0x158 ./tm4c123gh6pm_startup_ccs_gcc.o
 .debug_line    0x0000026f      0x54f ./driverlib/adc.o
 .debug_line    0x000007be      0x3a6 ./driverlib/aes.o
 .debug_line    0x00000b64      0x484 ./driverlib/can.o
 .debug_line    0x00000fe8      0x1d8 ./driverlib/comp.o
 .debug_line    0x000011c0      0x196 ./driverlib/cpu.o
 .debug_line    0x00001356      0x18d ./driverlib/crc.o
 .debug_line    0x000014e3      0x2c3 ./driverlib/des.o
 .debug_line    0x000017a6      0x350 ./driverlib/eeprom.o
 .debug_line    0x00001af6      0x7cd ./driverlib/emac.o
 .debug_line    0x000022c3      0x51c ./driverlib/epi.o
 .debug_line    0x000027df      0x2cd ./driverlib/flash.o
 .debug_line    0x00002aac      0x1c1 ./driverlib/fpu.o
 .debug_line    0x00002c6d      0x658 ./driverlib/gpio.o
 .debug_line    0x000032c5      0x647 ./driverlib/hibernate.o
 .debug_line    0x0000390c      0x612 ./driverlib/i2c.o
 .debug_line    0x00003f1e      0x2b7 ./driverlib/interrupt.o
 .debug_line    0x000041d5      0x43a ./driverlib/lcd.o
 .debug_line    0x0000460f      0x1d2 ./driverlib/mpu.o
 .debug_line    0x000047e1      0x272 ./driverlib/onewire.o
 .debug_line    0x00004a53      0x4ff ./driverlib/pwm.o
 .debug_line    0x00004f52      0x2d7 ./driverlib/qei.o
 .debug_line    0x00005229      0x34f ./driverlib/shamd5.o
 .debug_line    0x00005578      0x396 ./driverlib/ssi.o
 .debug_line    0x0000590e      0x1f2 ./driverlib/sw_crc.o
 .debug_line    0x00005b00      0x722 ./driverlib/sysctl.o
 .debug_line    0x00006222      0x1a7 ./driverlib/sysexc.o
 .debug_line    0x000063c9      0x1c5 ./driverlib/systick.o
 .debug_line    0x0000658e      0x514 ./driverlib/timer.o
 .debug_line    0x00006aa2      0x58d ./driverlib/uart.o
 .debug_line    0x0000702f      0x3de ./driverlib/udma.o
 .debug_line    0x0000740d      0xa82 ./driverlib/usb.o
 .debug_line    0x00007e8f      0x28e ./driverlib/watchdog.o

.debug_str      0x00000000     0x61fc
 .debug_str     0x00000000      0x16f ./main.o
                                0x1ac (size before relaxing)
 .debug_str     0x0000016f       0x98 ./tm4c123gh6pm_startup_ccs_gcc.o
                                0x23e (size before relaxing)
 .debug_str     0x00000207      0x495 ./driverlib/adc.o
                                0x648 (size before relaxing)
 .debug_str     0x0000069c      0x215 ./driverlib/aes.o
                                0x408 (size before relaxing)
 .debug_str     0x000008b1      0x4a4 ./driverlib/can.o
                                0x6a8 (size before relaxing)
 .debug_str     0x00000d55       0x85 ./driverlib/comp.o
                                0x29c (size before relaxing)
 .debug_str     0x00000dda       0x89 ./driverlib/cpu.o
                                0x1fe (size before relaxing)
 .debug_str     0x00000e63       0xbb ./driverlib/crc.o
                                0x25a (size before relaxing)
 .debug_str     0x00000f1e      0x12e ./driverlib/des.o
                                0x33a (size before relaxing)
 .debug_str     0x0000104c      0x1f3 ./driverlib/eeprom.o
                                0x3a1 (size before relaxing)
 .debug_str     0x0000123f      0x8cf ./driverlib/emac.o
                                0xb49 (size before relaxing)
 .debug_str     0x00001b0e      0x439 ./driverlib/epi.o
                                0x66a (size before relaxing)
 .debug_str     0x00001f47      0x204 ./driverlib/flash.o
                                0x40b (size before relaxing)
 .debug_str     0x0000214b       0xd1 ./driverlib/fpu.o
                                0x24f (size before relaxing)
 .debug_str     0x0000221c      0x4dd ./driverlib/gpio.o
                                0x6cc (size before relaxing)
 .debug_str     0x000026f9      0x59b ./driverlib/hibernate.o
                                0x7c1 (size before relaxing)
 .debug_str     0x00002c94      0x4f7 ./driverlib/i2c.o
                                0x70d (size before relaxing)
 .debug_str     0x0000318b      0x1af ./driverlib/interrupt.o
                                0x3bd (size before relaxing)
 .debug_str     0x0000333a      0x409 ./driverlib/lcd.o
                                0x654 (size before relaxing)
 .debug_str     0x00003743       0xd8 ./driverlib/mpu.o
                                0x275 (size before relaxing)
 .debug_str     0x0000381b      0x184 ./driverlib/onewire.o
                                0x343 (size before relaxing)
 .debug_str     0x0000399f      0x3d0 ./driverlib/pwm.o
                                0x5ed (size before relaxing)
 .debug_str     0x00003d6f      0x1a4 ./driverlib/qei.o
                                0x378 (size before relaxing)
 .debug_str     0x00003f13      0x1d5 ./driverlib/shamd5.o
                                0x3f3 (size before relaxing)
 .debug_str     0x000040e8      0x284 ./driverlib/ssi.o
                                0x4a8 (size before relaxing)
 .debug_str     0x0000436c       0xbc ./driverlib/sw_crc.o
                                0x29c (size before relaxing)
 .debug_str     0x00004428      0x685 ./driverlib/sysctl.o
                                0x88e (size before relaxing)
 .debug_str     0x00004aad       0xaf ./driverlib/sysexc.o
                                0x252 (size before relaxing)
 .debug_str     0x00004b5c       0xd0 ./driverlib/systick.o
                                0x25b (size before relaxing)
 .debug_str     0x00004c2c      0x385 ./driverlib/timer.o
                                0x5bc (size before relaxing)
 .debug_str     0x00004fb1      0x430 ./driverlib/uart.o
                                0x6b0 (size before relaxing)
 .debug_str     0x000053e1      0x397 ./driverlib/udma.o
                                0x53f (size before relaxing)
 .debug_str     0x00005778      0x8fb ./driverlib/usb.o
                                0xbc6 (size before relaxing)
 .debug_str     0x00006073      0x189 ./driverlib/watchdog.o
                                0x329 (size before relaxing)

.debug_frame    0x00000000     0x9004
 .debug_frame   0x00000000       0x30 ./main.o
 .debug_frame   0x00000030       0x7c ./tm4c123gh6pm_startup_ccs_gcc.o
 .debug_frame   0x000000ac      0x670 ./driverlib/adc.o
 .debug_frame   0x0000071c      0x3e8 ./driverlib/aes.o
 .debug_frame   0x00000b04      0x378 ./driverlib/can.o
 .debug_frame   0x00000e7c      0x170 ./driverlib/comp.o
 .debug_frame   0x00000fec       0x70 ./driverlib/cpu.o
 .debug_frame   0x0000105c       0xd4 ./driverlib/crc.o
 .debug_frame   0x00001130      0x2d4 ./driverlib/des.o
 .debug_frame   0x00001404      0x30c ./driverlib/eeprom.o
 .debug_frame   0x00001710      0xb54 ./driverlib/emac.o
 .debug_frame   0x00002264      0x670 ./driverlib/epi.o
 .debug_frame   0x000028d4      0x278 ./driverlib/flash.o
 .debug_frame   0x00002b4c      0x150 ./driverlib/fpu.o
 .debug_frame   0x00002c9c      0x6f8 ./driverlib/gpio.o
 .debug_frame   0x00003394      0x738 ./driverlib/hibernate.o
 .debug_frame   0x00003acc      0x898 ./driverlib/i2c.o
 .debug_frame   0x00004364      0x280 ./driverlib/interrupt.o
 .debug_frame   0x000045e4      0x4b0 ./driverlib/lcd.o
 .debug_frame   0x00004a94      0x158 ./driverlib/mpu.o
 .debug_frame   0x00004bec      0x25c ./driverlib/onewire.o
 .debug_frame   0x00004e48      0x5f0 ./driverlib/pwm.o
 .debug_frame   0x00005438      0x350 ./driverlib/qei.o
 .debug_frame   0x00005788      0x31c ./driverlib/shamd5.o
 .debug_frame   0x00005aa4      0x3c8 ./driverlib/ssi.o
 .debug_frame   0x00005e6c       0xd4 ./driverlib/sw_crc.o
 .debug_frame   0x00005f40      0x844 ./driverlib/sysctl.o
 .debug_frame   0x00006784      0x120 ./driverlib/sysexc.o
 .debug_frame   0x000068a4      0x138 ./driverlib/systick.o
 .debug_frame   0x000069dc      0x628 ./driverlib/timer.o
 .debug_frame   0x00007004      0x784 ./driverlib/uart.o
 .debug_frame   0x00007788      0x3e0 ./driverlib/udma.o
 .debug_frame   0x00007b68     0x1044 ./driverlib/usb.o
 .debug_frame   0x00008bac      0x2d8 ./driverlib/watchdog.o
 .debug_frame   0x00008e84       0x28 c:/ti/ccsv6/tools/compiler/gcc-arm-none-eabi-4_9-2015q3/bin/../lib/gcc/arm-none-eabi/4.9.3/../../../../arm-none-eabi/lib/armv7e-m/fpu\libc.a(lib_a-exit.o)
 .debug_frame   0x00008eac       0x2c c:/ti/ccsv6/tools/compiler/gcc-arm-none-eabi-4_9-2015q3/bin/../lib/gcc/arm-none-eabi/4.9.3/../../../../arm-none-eabi/lib/armv7e-m/fpu\libc.a(lib_a-init.o)
 .debug_frame   0x00008ed8       0x34 c:/ti/ccsv6/tools/compiler/gcc-arm-none-eabi-4_9-2015q3/bin/../lib/gcc/arm-none-eabi/4.9.3/../../../../arm-none-eabi/lib/armv7e-m/fpu\libc.a(lib_a-memset.o)
 .debug_frame   0x00008f0c       0x50 c:/ti/ccsv6/tools/compiler/gcc-arm-none-eabi-4_9-2015q3/bin/../lib/gcc/arm-none-eabi/4.9.3/../../../../arm-none-eabi/lib/armv7e-m/fpu\libc.a(lib_a-__call_atexit.o)
 .debug_frame   0x00008f5c       0x20 c:/ti/ccsv6/tools/compiler/gcc-arm-none-eabi-4_9-2015q3/bin/../lib/gcc/arm-none-eabi/4.9.3/../../../../arm-none-eabi/lib/armv7e-m/fpu\libc.a(lib_a-atexit.o)
 .debug_frame   0x00008f7c       0x34 c:/ti/ccsv6/tools/compiler/gcc-arm-none-eabi-4_9-2015q3/bin/../lib/gcc/arm-none-eabi/4.9.3/../../../../arm-none-eabi/lib/armv7e-m/fpu\libc.a(lib_a-fini.o)
 .debug_frame   0x00008fb0       0x34 c:/ti/ccsv6/tools/compiler/gcc-arm-none-eabi-4_9-2015q3/bin/../lib/gcc/arm-none-eabi/4.9.3/../../../../arm-none-eabi/lib/armv7e-m/fpu\libc.a(lib_a-__atexit.o)
 .debug_frame   0x00008fe4       0x20 c:/ti/ccsv6/tools/compiler/gcc-arm-none-eabi-4_9-2015q3/bin/../lib/gcc/arm-none-eabi/4.9.3/../../../../arm-none-eabi/lib/armv7e-m/fpu\libnosys.a(_exit.o)
